
ctarget:     file format elf64-x86-64


Disassembly of section .init:

0000000000401000 <_init>:
  401000:	f3 0f 1e fa          	endbr64 
  401004:	48 83 ec 08          	sub    $0x8,%rsp
  401008:	48 8b 05 e9 4f 00 00 	mov    0x4fe9(%rip),%rax        # 405ff8 <__gmon_start__@Base>
  40100f:	48 85 c0             	test   %rax,%rax
  401012:	74 02                	je     401016 <_init+0x16>
  401014:	ff d0                	call   *%rax
  401016:	48 83 c4 08          	add    $0x8,%rsp
  40101a:	c3                   	ret    

Disassembly of section .plt:

0000000000401020 <.plt>:
  401020:	ff 35 e2 4f 00 00    	push   0x4fe2(%rip)        # 406008 <_GLOBAL_OFFSET_TABLE_+0x8>
  401026:	f2 ff 25 e3 4f 00 00 	bnd jmp *0x4fe3(%rip)        # 406010 <_GLOBAL_OFFSET_TABLE_+0x10>
  40102d:	0f 1f 00             	nopl   (%rax)
  401030:	f3 0f 1e fa          	endbr64 
  401034:	68 00 00 00 00       	push   $0x0
  401039:	f2 e9 e1 ff ff ff    	bnd jmp 401020 <_init+0x20>
  40103f:	90                   	nop
  401040:	f3 0f 1e fa          	endbr64 
  401044:	68 01 00 00 00       	push   $0x1
  401049:	f2 e9 d1 ff ff ff    	bnd jmp 401020 <_init+0x20>
  40104f:	90                   	nop
  401050:	f3 0f 1e fa          	endbr64 
  401054:	68 02 00 00 00       	push   $0x2
  401059:	f2 e9 c1 ff ff ff    	bnd jmp 401020 <_init+0x20>
  40105f:	90                   	nop
  401060:	f3 0f 1e fa          	endbr64 
  401064:	68 03 00 00 00       	push   $0x3
  401069:	f2 e9 b1 ff ff ff    	bnd jmp 401020 <_init+0x20>
  40106f:	90                   	nop
  401070:	f3 0f 1e fa          	endbr64 
  401074:	68 04 00 00 00       	push   $0x4
  401079:	f2 e9 a1 ff ff ff    	bnd jmp 401020 <_init+0x20>
  40107f:	90                   	nop
  401080:	f3 0f 1e fa          	endbr64 
  401084:	68 05 00 00 00       	push   $0x5
  401089:	f2 e9 91 ff ff ff    	bnd jmp 401020 <_init+0x20>
  40108f:	90                   	nop
  401090:	f3 0f 1e fa          	endbr64 
  401094:	68 06 00 00 00       	push   $0x6
  401099:	f2 e9 81 ff ff ff    	bnd jmp 401020 <_init+0x20>
  40109f:	90                   	nop
  4010a0:	f3 0f 1e fa          	endbr64 
  4010a4:	68 07 00 00 00       	push   $0x7
  4010a9:	f2 e9 71 ff ff ff    	bnd jmp 401020 <_init+0x20>
  4010af:	90                   	nop
  4010b0:	f3 0f 1e fa          	endbr64 
  4010b4:	68 08 00 00 00       	push   $0x8
  4010b9:	f2 e9 61 ff ff ff    	bnd jmp 401020 <_init+0x20>
  4010bf:	90                   	nop
  4010c0:	f3 0f 1e fa          	endbr64 
  4010c4:	68 09 00 00 00       	push   $0x9
  4010c9:	f2 e9 51 ff ff ff    	bnd jmp 401020 <_init+0x20>
  4010cf:	90                   	nop
  4010d0:	f3 0f 1e fa          	endbr64 
  4010d4:	68 0a 00 00 00       	push   $0xa
  4010d9:	f2 e9 41 ff ff ff    	bnd jmp 401020 <_init+0x20>
  4010df:	90                   	nop
  4010e0:	f3 0f 1e fa          	endbr64 
  4010e4:	68 0b 00 00 00       	push   $0xb
  4010e9:	f2 e9 31 ff ff ff    	bnd jmp 401020 <_init+0x20>
  4010ef:	90                   	nop
  4010f0:	f3 0f 1e fa          	endbr64 
  4010f4:	68 0c 00 00 00       	push   $0xc
  4010f9:	f2 e9 21 ff ff ff    	bnd jmp 401020 <_init+0x20>
  4010ff:	90                   	nop
  401100:	f3 0f 1e fa          	endbr64 
  401104:	68 0d 00 00 00       	push   $0xd
  401109:	f2 e9 11 ff ff ff    	bnd jmp 401020 <_init+0x20>
  40110f:	90                   	nop
  401110:	f3 0f 1e fa          	endbr64 
  401114:	68 0e 00 00 00       	push   $0xe
  401119:	f2 e9 01 ff ff ff    	bnd jmp 401020 <_init+0x20>
  40111f:	90                   	nop
  401120:	f3 0f 1e fa          	endbr64 
  401124:	68 0f 00 00 00       	push   $0xf
  401129:	f2 e9 f1 fe ff ff    	bnd jmp 401020 <_init+0x20>
  40112f:	90                   	nop
  401130:	f3 0f 1e fa          	endbr64 
  401134:	68 10 00 00 00       	push   $0x10
  401139:	f2 e9 e1 fe ff ff    	bnd jmp 401020 <_init+0x20>
  40113f:	90                   	nop
  401140:	f3 0f 1e fa          	endbr64 
  401144:	68 11 00 00 00       	push   $0x11
  401149:	f2 e9 d1 fe ff ff    	bnd jmp 401020 <_init+0x20>
  40114f:	90                   	nop
  401150:	f3 0f 1e fa          	endbr64 
  401154:	68 12 00 00 00       	push   $0x12
  401159:	f2 e9 c1 fe ff ff    	bnd jmp 401020 <_init+0x20>
  40115f:	90                   	nop
  401160:	f3 0f 1e fa          	endbr64 
  401164:	68 13 00 00 00       	push   $0x13
  401169:	f2 e9 b1 fe ff ff    	bnd jmp 401020 <_init+0x20>
  40116f:	90                   	nop
  401170:	f3 0f 1e fa          	endbr64 
  401174:	68 14 00 00 00       	push   $0x14
  401179:	f2 e9 a1 fe ff ff    	bnd jmp 401020 <_init+0x20>
  40117f:	90                   	nop
  401180:	f3 0f 1e fa          	endbr64 
  401184:	68 15 00 00 00       	push   $0x15
  401189:	f2 e9 91 fe ff ff    	bnd jmp 401020 <_init+0x20>
  40118f:	90                   	nop
  401190:	f3 0f 1e fa          	endbr64 
  401194:	68 16 00 00 00       	push   $0x16
  401199:	f2 e9 81 fe ff ff    	bnd jmp 401020 <_init+0x20>
  40119f:	90                   	nop
  4011a0:	f3 0f 1e fa          	endbr64 
  4011a4:	68 17 00 00 00       	push   $0x17
  4011a9:	f2 e9 71 fe ff ff    	bnd jmp 401020 <_init+0x20>
  4011af:	90                   	nop
  4011b0:	f3 0f 1e fa          	endbr64 
  4011b4:	68 18 00 00 00       	push   $0x18
  4011b9:	f2 e9 61 fe ff ff    	bnd jmp 401020 <_init+0x20>
  4011bf:	90                   	nop
  4011c0:	f3 0f 1e fa          	endbr64 
  4011c4:	68 19 00 00 00       	push   $0x19
  4011c9:	f2 e9 51 fe ff ff    	bnd jmp 401020 <_init+0x20>
  4011cf:	90                   	nop
  4011d0:	f3 0f 1e fa          	endbr64 
  4011d4:	68 1a 00 00 00       	push   $0x1a
  4011d9:	f2 e9 41 fe ff ff    	bnd jmp 401020 <_init+0x20>
  4011df:	90                   	nop
  4011e0:	f3 0f 1e fa          	endbr64 
  4011e4:	68 1b 00 00 00       	push   $0x1b
  4011e9:	f2 e9 31 fe ff ff    	bnd jmp 401020 <_init+0x20>
  4011ef:	90                   	nop
  4011f0:	f3 0f 1e fa          	endbr64 
  4011f4:	68 1c 00 00 00       	push   $0x1c
  4011f9:	f2 e9 21 fe ff ff    	bnd jmp 401020 <_init+0x20>
  4011ff:	90                   	nop
  401200:	f3 0f 1e fa          	endbr64 
  401204:	68 1d 00 00 00       	push   $0x1d
  401209:	f2 e9 11 fe ff ff    	bnd jmp 401020 <_init+0x20>
  40120f:	90                   	nop
  401210:	f3 0f 1e fa          	endbr64 
  401214:	68 1e 00 00 00       	push   $0x1e
  401219:	f2 e9 01 fe ff ff    	bnd jmp 401020 <_init+0x20>
  40121f:	90                   	nop
  401220:	f3 0f 1e fa          	endbr64 
  401224:	68 1f 00 00 00       	push   $0x1f
  401229:	f2 e9 f1 fd ff ff    	bnd jmp 401020 <_init+0x20>
  40122f:	90                   	nop
  401230:	f3 0f 1e fa          	endbr64 
  401234:	68 20 00 00 00       	push   $0x20
  401239:	f2 e9 e1 fd ff ff    	bnd jmp 401020 <_init+0x20>
  40123f:	90                   	nop
  401240:	f3 0f 1e fa          	endbr64 
  401244:	68 21 00 00 00       	push   $0x21
  401249:	f2 e9 d1 fd ff ff    	bnd jmp 401020 <_init+0x20>
  40124f:	90                   	nop

Disassembly of section .plt.sec:

0000000000401250 <__errno_location@plt>:
  401250:	f3 0f 1e fa          	endbr64 
  401254:	f2 ff 25 bd 4d 00 00 	bnd jmp *0x4dbd(%rip)        # 406018 <__errno_location@GLIBC_2.2.5>
  40125b:	0f 1f 44 00 00       	nopl   0x0(%rax,%rax,1)

0000000000401260 <srandom@plt>:
  401260:	f3 0f 1e fa          	endbr64 
  401264:	f2 ff 25 b5 4d 00 00 	bnd jmp *0x4db5(%rip)        # 406020 <srandom@GLIBC_2.2.5>
  40126b:	0f 1f 44 00 00       	nopl   0x0(%rax,%rax,1)

0000000000401270 <strncmp@plt>:
  401270:	f3 0f 1e fa          	endbr64 
  401274:	f2 ff 25 ad 4d 00 00 	bnd jmp *0x4dad(%rip)        # 406028 <strncmp@GLIBC_2.2.5>
  40127b:	0f 1f 44 00 00       	nopl   0x0(%rax,%rax,1)

0000000000401280 <strcpy@plt>:
  401280:	f3 0f 1e fa          	endbr64 
  401284:	f2 ff 25 a5 4d 00 00 	bnd jmp *0x4da5(%rip)        # 406030 <strcpy@GLIBC_2.2.5>
  40128b:	0f 1f 44 00 00       	nopl   0x0(%rax,%rax,1)

0000000000401290 <__read_chk@plt>:
  401290:	f3 0f 1e fa          	endbr64 
  401294:	f2 ff 25 9d 4d 00 00 	bnd jmp *0x4d9d(%rip)        # 406038 <__read_chk@GLIBC_2.4>
  40129b:	0f 1f 44 00 00       	nopl   0x0(%rax,%rax,1)

00000000004012a0 <puts@plt>:
  4012a0:	f3 0f 1e fa          	endbr64 
  4012a4:	f2 ff 25 95 4d 00 00 	bnd jmp *0x4d95(%rip)        # 406040 <puts@GLIBC_2.2.5>
  4012ab:	0f 1f 44 00 00       	nopl   0x0(%rax,%rax,1)

00000000004012b0 <write@plt>:
  4012b0:	f3 0f 1e fa          	endbr64 
  4012b4:	f2 ff 25 8d 4d 00 00 	bnd jmp *0x4d8d(%rip)        # 406048 <write@GLIBC_2.2.5>
  4012bb:	0f 1f 44 00 00       	nopl   0x0(%rax,%rax,1)

00000000004012c0 <strlen@plt>:
  4012c0:	f3 0f 1e fa          	endbr64 
  4012c4:	f2 ff 25 85 4d 00 00 	bnd jmp *0x4d85(%rip)        # 406050 <strlen@GLIBC_2.2.5>
  4012cb:	0f 1f 44 00 00       	nopl   0x0(%rax,%rax,1)

00000000004012d0 <__stack_chk_fail@plt>:
  4012d0:	f3 0f 1e fa          	endbr64 
  4012d4:	f2 ff 25 7d 4d 00 00 	bnd jmp *0x4d7d(%rip)        # 406058 <__stack_chk_fail@GLIBC_2.4>
  4012db:	0f 1f 44 00 00       	nopl   0x0(%rax,%rax,1)

00000000004012e0 <mmap@plt>:
  4012e0:	f3 0f 1e fa          	endbr64 
  4012e4:	f2 ff 25 75 4d 00 00 	bnd jmp *0x4d75(%rip)        # 406060 <mmap@GLIBC_2.2.5>
  4012eb:	0f 1f 44 00 00       	nopl   0x0(%rax,%rax,1)

00000000004012f0 <memset@plt>:
  4012f0:	f3 0f 1e fa          	endbr64 
  4012f4:	f2 ff 25 6d 4d 00 00 	bnd jmp *0x4d6d(%rip)        # 406068 <memset@GLIBC_2.2.5>
  4012fb:	0f 1f 44 00 00       	nopl   0x0(%rax,%rax,1)

0000000000401300 <alarm@plt>:
  401300:	f3 0f 1e fa          	endbr64 
  401304:	f2 ff 25 65 4d 00 00 	bnd jmp *0x4d65(%rip)        # 406070 <alarm@GLIBC_2.2.5>
  40130b:	0f 1f 44 00 00       	nopl   0x0(%rax,%rax,1)

0000000000401310 <close@plt>:
  401310:	f3 0f 1e fa          	endbr64 
  401314:	f2 ff 25 5d 4d 00 00 	bnd jmp *0x4d5d(%rip)        # 406078 <close@GLIBC_2.2.5>
  40131b:	0f 1f 44 00 00       	nopl   0x0(%rax,%rax,1)

0000000000401320 <strcmp@plt>:
  401320:	f3 0f 1e fa          	endbr64 
  401324:	f2 ff 25 55 4d 00 00 	bnd jmp *0x4d55(%rip)        # 406080 <strcmp@GLIBC_2.2.5>
  40132b:	0f 1f 44 00 00       	nopl   0x0(%rax,%rax,1)

0000000000401330 <signal@plt>:
  401330:	f3 0f 1e fa          	endbr64 
  401334:	f2 ff 25 4d 4d 00 00 	bnd jmp *0x4d4d(%rip)        # 406088 <signal@GLIBC_2.2.5>
  40133b:	0f 1f 44 00 00       	nopl   0x0(%rax,%rax,1)

0000000000401340 <gethostbyname@plt>:
  401340:	f3 0f 1e fa          	endbr64 
  401344:	f2 ff 25 45 4d 00 00 	bnd jmp *0x4d45(%rip)        # 406090 <gethostbyname@GLIBC_2.2.5>
  40134b:	0f 1f 44 00 00       	nopl   0x0(%rax,%rax,1)

0000000000401350 <__memmove_chk@plt>:
  401350:	f3 0f 1e fa          	endbr64 
  401354:	f2 ff 25 3d 4d 00 00 	bnd jmp *0x4d3d(%rip)        # 406098 <__memmove_chk@GLIBC_2.3.4>
  40135b:	0f 1f 44 00 00       	nopl   0x0(%rax,%rax,1)

0000000000401360 <strtol@plt>:
  401360:	f3 0f 1e fa          	endbr64 
  401364:	f2 ff 25 35 4d 00 00 	bnd jmp *0x4d35(%rip)        # 4060a0 <strtol@GLIBC_2.2.5>
  40136b:	0f 1f 44 00 00       	nopl   0x0(%rax,%rax,1)

0000000000401370 <memcpy@plt>:
  401370:	f3 0f 1e fa          	endbr64 
  401374:	f2 ff 25 2d 4d 00 00 	bnd jmp *0x4d2d(%rip)        # 4060a8 <memcpy@GLIBC_2.14>
  40137b:	0f 1f 44 00 00       	nopl   0x0(%rax,%rax,1)

0000000000401380 <time@plt>:
  401380:	f3 0f 1e fa          	endbr64 
  401384:	f2 ff 25 25 4d 00 00 	bnd jmp *0x4d25(%rip)        # 4060b0 <time@GLIBC_2.2.5>
  40138b:	0f 1f 44 00 00       	nopl   0x0(%rax,%rax,1)

0000000000401390 <random@plt>:
  401390:	f3 0f 1e fa          	endbr64 
  401394:	f2 ff 25 1d 4d 00 00 	bnd jmp *0x4d1d(%rip)        # 4060b8 <random@GLIBC_2.2.5>
  40139b:	0f 1f 44 00 00       	nopl   0x0(%rax,%rax,1)

00000000004013a0 <fflush@plt>:
  4013a0:	f3 0f 1e fa          	endbr64 
  4013a4:	f2 ff 25 15 4d 00 00 	bnd jmp *0x4d15(%rip)        # 4060c0 <fflush@GLIBC_2.2.5>
  4013ab:	0f 1f 44 00 00       	nopl   0x0(%rax,%rax,1)

00000000004013b0 <__isoc99_sscanf@plt>:
  4013b0:	f3 0f 1e fa          	endbr64 
  4013b4:	f2 ff 25 0d 4d 00 00 	bnd jmp *0x4d0d(%rip)        # 4060c8 <__isoc99_sscanf@GLIBC_2.7>
  4013bb:	0f 1f 44 00 00       	nopl   0x0(%rax,%rax,1)

00000000004013c0 <munmap@plt>:
  4013c0:	f3 0f 1e fa          	endbr64 
  4013c4:	f2 ff 25 05 4d 00 00 	bnd jmp *0x4d05(%rip)        # 4060d0 <munmap@GLIBC_2.2.5>
  4013cb:	0f 1f 44 00 00       	nopl   0x0(%rax,%rax,1)

00000000004013d0 <__printf_chk@plt>:
  4013d0:	f3 0f 1e fa          	endbr64 
  4013d4:	f2 ff 25 fd 4c 00 00 	bnd jmp *0x4cfd(%rip)        # 4060d8 <__printf_chk@GLIBC_2.3.4>
  4013db:	0f 1f 44 00 00       	nopl   0x0(%rax,%rax,1)

00000000004013e0 <fopen@plt>:
  4013e0:	f3 0f 1e fa          	endbr64 
  4013e4:	f2 ff 25 f5 4c 00 00 	bnd jmp *0x4cf5(%rip)        # 4060e0 <fopen@GLIBC_2.2.5>
  4013eb:	0f 1f 44 00 00       	nopl   0x0(%rax,%rax,1)

00000000004013f0 <getopt@plt>:
  4013f0:	f3 0f 1e fa          	endbr64 
  4013f4:	f2 ff 25 ed 4c 00 00 	bnd jmp *0x4ced(%rip)        # 4060e8 <getopt@GLIBC_2.2.5>
  4013fb:	0f 1f 44 00 00       	nopl   0x0(%rax,%rax,1)

0000000000401400 <strtoul@plt>:
  401400:	f3 0f 1e fa          	endbr64 
  401404:	f2 ff 25 e5 4c 00 00 	bnd jmp *0x4ce5(%rip)        # 4060f0 <strtoul@GLIBC_2.2.5>
  40140b:	0f 1f 44 00 00       	nopl   0x0(%rax,%rax,1)

0000000000401410 <exit@plt>:
  401410:	f3 0f 1e fa          	endbr64 
  401414:	f2 ff 25 dd 4c 00 00 	bnd jmp *0x4cdd(%rip)        # 4060f8 <exit@GLIBC_2.2.5>
  40141b:	0f 1f 44 00 00       	nopl   0x0(%rax,%rax,1)

0000000000401420 <connect@plt>:
  401420:	f3 0f 1e fa          	endbr64 
  401424:	f2 ff 25 d5 4c 00 00 	bnd jmp *0x4cd5(%rip)        # 406100 <connect@GLIBC_2.2.5>
  40142b:	0f 1f 44 00 00       	nopl   0x0(%rax,%rax,1)

0000000000401430 <__fprintf_chk@plt>:
  401430:	f3 0f 1e fa          	endbr64 
  401434:	f2 ff 25 cd 4c 00 00 	bnd jmp *0x4ccd(%rip)        # 406108 <__fprintf_chk@GLIBC_2.3.4>
  40143b:	0f 1f 44 00 00       	nopl   0x0(%rax,%rax,1)

0000000000401440 <getc@plt>:
  401440:	f3 0f 1e fa          	endbr64 
  401444:	f2 ff 25 c5 4c 00 00 	bnd jmp *0x4cc5(%rip)        # 406110 <getc@GLIBC_2.2.5>
  40144b:	0f 1f 44 00 00       	nopl   0x0(%rax,%rax,1)

0000000000401450 <__sprintf_chk@plt>:
  401450:	f3 0f 1e fa          	endbr64 
  401454:	f2 ff 25 bd 4c 00 00 	bnd jmp *0x4cbd(%rip)        # 406118 <__sprintf_chk@GLIBC_2.3.4>
  40145b:	0f 1f 44 00 00       	nopl   0x0(%rax,%rax,1)

0000000000401460 <socket@plt>:
  401460:	f3 0f 1e fa          	endbr64 
  401464:	f2 ff 25 b5 4c 00 00 	bnd jmp *0x4cb5(%rip)        # 406120 <socket@GLIBC_2.2.5>
  40146b:	0f 1f 44 00 00       	nopl   0x0(%rax,%rax,1)

Disassembly of section .text:

0000000000401470 <_start>:
  401470:	f3 0f 1e fa          	endbr64 
  401474:	31 ed                	xor    %ebp,%ebp
  401476:	49 89 d1             	mov    %rdx,%r9
  401479:	5e                   	pop    %rsi
  40147a:	48 89 e2             	mov    %rsp,%rdx
  40147d:	48 83 e4 f0          	and    $0xfffffffffffffff0,%rsp
  401481:	50                   	push   %rax
  401482:	54                   	push   %rsp
  401483:	45 31 c0             	xor    %r8d,%r8d
  401486:	31 c9                	xor    %ecx,%ecx
  401488:	48 c7 c7 80 16 40 00 	mov    $0x401680,%rdi
  40148f:	ff 15 5b 4b 00 00    	call   *0x4b5b(%rip)        # 405ff0 <__libc_start_main@GLIBC_2.34>
  401495:	f4                   	hlt    
  401496:	66 2e 0f 1f 84 00 00 	cs nopw 0x0(%rax,%rax,1)
  40149d:	00 00 00 

00000000004014a0 <_dl_relocate_static_pie>:
  4014a0:	f3 0f 1e fa          	endbr64 
  4014a4:	c3                   	ret    
  4014a5:	66 2e 0f 1f 84 00 00 	cs nopw 0x0(%rax,%rax,1)
  4014ac:	00 00 00 
  4014af:	90                   	nop

00000000004014b0 <deregister_tm_clones>:
  4014b0:	b8 60 61 40 00       	mov    $0x406160,%eax
  4014b5:	48 3d 60 61 40 00    	cmp    $0x406160,%rax
  4014bb:	74 13                	je     4014d0 <deregister_tm_clones+0x20>
  4014bd:	b8 00 00 00 00       	mov    $0x0,%eax
  4014c2:	48 85 c0             	test   %rax,%rax
  4014c5:	74 09                	je     4014d0 <deregister_tm_clones+0x20>
  4014c7:	bf 60 61 40 00       	mov    $0x406160,%edi
  4014cc:	ff e0                	jmp    *%rax
  4014ce:	66 90                	xchg   %ax,%ax
  4014d0:	c3                   	ret    
  4014d1:	66 66 2e 0f 1f 84 00 	data16 cs nopw 0x0(%rax,%rax,1)
  4014d8:	00 00 00 00 
  4014dc:	0f 1f 40 00          	nopl   0x0(%rax)

00000000004014e0 <register_tm_clones>:
  4014e0:	be 60 61 40 00       	mov    $0x406160,%esi
  4014e5:	48 81 ee 60 61 40 00 	sub    $0x406160,%rsi
  4014ec:	48 89 f0             	mov    %rsi,%rax
  4014ef:	48 c1 ee 3f          	shr    $0x3f,%rsi
  4014f3:	48 c1 f8 03          	sar    $0x3,%rax
  4014f7:	48 01 c6             	add    %rax,%rsi
  4014fa:	48 d1 fe             	sar    %rsi
  4014fd:	74 11                	je     401510 <register_tm_clones+0x30>
  4014ff:	b8 00 00 00 00       	mov    $0x0,%eax
  401504:	48 85 c0             	test   %rax,%rax
  401507:	74 07                	je     401510 <register_tm_clones+0x30>
  401509:	bf 60 61 40 00       	mov    $0x406160,%edi
  40150e:	ff e0                	jmp    *%rax
  401510:	c3                   	ret    
  401511:	66 66 2e 0f 1f 84 00 	data16 cs nopw 0x0(%rax,%rax,1)
  401518:	00 00 00 00 
  40151c:	0f 1f 40 00          	nopl   0x0(%rax)

0000000000401520 <__do_global_dtors_aux>:
  401520:	f3 0f 1e fa          	endbr64 
  401524:	80 3d 7d 4c 00 00 00 	cmpb   $0x0,0x4c7d(%rip)        # 4061a8 <completed.0>
  40152b:	75 13                	jne    401540 <__do_global_dtors_aux+0x20>
  40152d:	55                   	push   %rbp
  40152e:	48 89 e5             	mov    %rsp,%rbp
  401531:	e8 7a ff ff ff       	call   4014b0 <deregister_tm_clones>
  401536:	c6 05 6b 4c 00 00 01 	movb   $0x1,0x4c6b(%rip)        # 4061a8 <completed.0>
  40153d:	5d                   	pop    %rbp
  40153e:	c3                   	ret    
  40153f:	90                   	nop
  401540:	c3                   	ret    
  401541:	66 66 2e 0f 1f 84 00 	data16 cs nopw 0x0(%rax,%rax,1)
  401548:	00 00 00 00 
  40154c:	0f 1f 40 00          	nopl   0x0(%rax)

0000000000401550 <frame_dummy>:
  401550:	f3 0f 1e fa          	endbr64 
  401554:	eb 8a                	jmp    4014e0 <register_tm_clones>

0000000000401556 <initialize_target>:
  401556:	55                   	push   %rbp
  401557:	53                   	push   %rbx
  401558:	48 83 ec 08          	sub    $0x8,%rsp
  40155c:	89 f5                	mov    %esi,%ebp
  40155e:	89 3d a0 4f 00 00    	mov    %edi,0x4fa0(%rip)        # 406504 <check_level>
  401564:	8b 3d ce 4b 00 00    	mov    0x4bce(%rip),%edi        # 406138 <target_id>
  40156a:	e8 be 1c 00 00       	call   40322d <gencookie>
  40156f:	89 c7                	mov    %eax,%edi
  401571:	89 05 99 4f 00 00    	mov    %eax,0x4f99(%rip)        # 406510 <cookie>
  401577:	e8 b1 1c 00 00       	call   40322d <gencookie>
  40157c:	89 05 8a 4f 00 00    	mov    %eax,0x4f8a(%rip)        # 40650c <authkey>
  401582:	8b 05 b0 4b 00 00    	mov    0x4bb0(%rip),%eax        # 406138 <target_id>
  401588:	8d 78 01             	lea    0x1(%rax),%edi
  40158b:	e8 d0 fc ff ff       	call   401260 <srandom@plt>
  401590:	e8 fb fd ff ff       	call   401390 <random@plt>
  401595:	89 c7                	mov    %eax,%edi
  401597:	e8 d4 02 00 00       	call   401870 <scramble>
  40159c:	89 c3                	mov    %eax,%ebx
  40159e:	85 ed                	test   %ebp,%ebp
  4015a0:	75 28                	jne    4015ca <initialize_target+0x74>
  4015a2:	b8 00 00 00 00       	mov    $0x0,%eax
  4015a7:	01 d8                	add    %ebx,%eax
  4015a9:	0f b7 c0             	movzwl %ax,%eax
  4015ac:	8d 04 c5 00 01 00 00 	lea    0x100(,%rax,8),%eax
  4015b3:	89 c0                	mov    %eax,%eax
  4015b5:	48 89 05 9c 4b 00 00 	mov    %rax,0x4b9c(%rip)        # 406158 <buf_offset>
  4015bc:	c6 05 2d 4f 00 00 63 	movb   $0x63,0x4f2d(%rip)        # 4064f0 <target_prefix>
  4015c3:	48 83 c4 08          	add    $0x8,%rsp
  4015c7:	5b                   	pop    %rbx
  4015c8:	5d                   	pop    %rbp
  4015c9:	c3                   	ret    
  4015ca:	bf 00 00 00 00       	mov    $0x0,%edi
  4015cf:	e8 ac fd ff ff       	call   401380 <time@plt>
  4015d4:	89 c7                	mov    %eax,%edi
  4015d6:	e8 85 fc ff ff       	call   401260 <srandom@plt>
  4015db:	e8 b0 fd ff ff       	call   401390 <random@plt>
  4015e0:	eb c5                	jmp    4015a7 <initialize_target+0x51>

00000000004015e2 <usage>:
  4015e2:	50                   	push   %rax
  4015e3:	58                   	pop    %rax
  4015e4:	48 83 ec 08          	sub    $0x8,%rsp
  4015e8:	48 89 fa             	mov    %rdi,%rdx
  4015eb:	83 3d 22 4f 00 00 00 	cmpl   $0x0,0x4f22(%rip)        # 406514 <is_checker>
  4015f2:	74 50                	je     401644 <usage+0x62>
  4015f4:	48 8d 35 0d 2a 00 00 	lea    0x2a0d(%rip),%rsi        # 404008 <_IO_stdin_used+0x8>
  4015fb:	bf 01 00 00 00       	mov    $0x1,%edi
  401600:	b8 00 00 00 00       	mov    $0x0,%eax
  401605:	e8 c6 fd ff ff       	call   4013d0 <__printf_chk@plt>
  40160a:	48 8d 3d 2f 2a 00 00 	lea    0x2a2f(%rip),%rdi        # 404040 <_IO_stdin_used+0x40>
  401611:	e8 8a fc ff ff       	call   4012a0 <puts@plt>
  401616:	48 8d 3d fb 2a 00 00 	lea    0x2afb(%rip),%rdi        # 404118 <_IO_stdin_used+0x118>
  40161d:	e8 7e fc ff ff       	call   4012a0 <puts@plt>
  401622:	48 8d 3d 3f 2a 00 00 	lea    0x2a3f(%rip),%rdi        # 404068 <_IO_stdin_used+0x68>
  401629:	e8 72 fc ff ff       	call   4012a0 <puts@plt>
  40162e:	48 8d 3d fd 2a 00 00 	lea    0x2afd(%rip),%rdi        # 404132 <_IO_stdin_used+0x132>
  401635:	e8 66 fc ff ff       	call   4012a0 <puts@plt>
  40163a:	bf 00 00 00 00       	mov    $0x0,%edi
  40163f:	e8 cc fd ff ff       	call   401410 <exit@plt>
  401644:	48 8d 35 03 2b 00 00 	lea    0x2b03(%rip),%rsi        # 40414e <_IO_stdin_used+0x14e>
  40164b:	bf 01 00 00 00       	mov    $0x1,%edi
  401650:	b8 00 00 00 00       	mov    $0x0,%eax
  401655:	e8 76 fd ff ff       	call   4013d0 <__printf_chk@plt>
  40165a:	48 8d 3d 2f 2a 00 00 	lea    0x2a2f(%rip),%rdi        # 404090 <_IO_stdin_used+0x90>
  401661:	e8 3a fc ff ff       	call   4012a0 <puts@plt>
  401666:	48 8d 3d 4b 2a 00 00 	lea    0x2a4b(%rip),%rdi        # 4040b8 <_IO_stdin_used+0xb8>
  40166d:	e8 2e fc ff ff       	call   4012a0 <puts@plt>
  401672:	48 8d 3d f3 2a 00 00 	lea    0x2af3(%rip),%rdi        # 40416c <_IO_stdin_used+0x16c>
  401679:	e8 22 fc ff ff       	call   4012a0 <puts@plt>
  40167e:	eb ba                	jmp    40163a <usage+0x58>

0000000000401680 <main>:
  401680:	f3 0f 1e fa          	endbr64 
  401684:	41 56                	push   %r14
  401686:	41 55                	push   %r13
  401688:	41 54                	push   %r12
  40168a:	55                   	push   %rbp
  40168b:	53                   	push   %rbx
  40168c:	89 fd                	mov    %edi,%ebp
  40168e:	48 89 f3             	mov    %rsi,%rbx
  401691:	48 c7 c6 48 22 40 00 	mov    $0x402248,%rsi
  401698:	bf 0b 00 00 00       	mov    $0xb,%edi
  40169d:	e8 8e fc ff ff       	call   401330 <signal@plt>
  4016a2:	48 c7 c6 ee 21 40 00 	mov    $0x4021ee,%rsi
  4016a9:	bf 07 00 00 00       	mov    $0x7,%edi
  4016ae:	e8 7d fc ff ff       	call   401330 <signal@plt>
  4016b3:	48 c7 c6 a2 22 40 00 	mov    $0x4022a2,%rsi
  4016ba:	bf 04 00 00 00       	mov    $0x4,%edi
  4016bf:	e8 6c fc ff ff       	call   401330 <signal@plt>
  4016c4:	83 3d 49 4e 00 00 00 	cmpl   $0x0,0x4e49(%rip)        # 406514 <is_checker>
  4016cb:	75 26                	jne    4016f3 <main+0x73>
  4016cd:	4c 8d 25 b1 2a 00 00 	lea    0x2ab1(%rip),%r12        # 404185 <_IO_stdin_used+0x185>
  4016d4:	48 8b 05 95 4a 00 00 	mov    0x4a95(%rip),%rax        # 406170 <stdin@GLIBC_2.2.5>
  4016db:	48 89 05 16 4e 00 00 	mov    %rax,0x4e16(%rip)        # 4064f8 <infile>
  4016e2:	41 bd 00 00 00 00    	mov    $0x0,%r13d
  4016e8:	41 be 00 00 00 00    	mov    $0x0,%r14d
  4016ee:	e9 8d 00 00 00       	jmp    401780 <main+0x100>
  4016f3:	48 c7 c6 fc 22 40 00 	mov    $0x4022fc,%rsi
  4016fa:	bf 0e 00 00 00       	mov    $0xe,%edi
  4016ff:	e8 2c fc ff ff       	call   401330 <signal@plt>
  401704:	bf 05 00 00 00       	mov    $0x5,%edi
  401709:	e8 f2 fb ff ff       	call   401300 <alarm@plt>
  40170e:	4c 8d 25 75 2a 00 00 	lea    0x2a75(%rip),%r12        # 40418a <_IO_stdin_used+0x18a>
  401715:	eb bd                	jmp    4016d4 <main+0x54>
  401717:	48 8b 3b             	mov    (%rbx),%rdi
  40171a:	e8 c3 fe ff ff       	call   4015e2 <usage>
  40171f:	48 8d 35 64 2c 00 00 	lea    0x2c64(%rip),%rsi        # 40438a <_IO_stdin_used+0x38a>
  401726:	48 8b 3d 53 4a 00 00 	mov    0x4a53(%rip),%rdi        # 406180 <optarg@GLIBC_2.2.5>
  40172d:	e8 ae fc ff ff       	call   4013e0 <fopen@plt>
  401732:	48 89 05 bf 4d 00 00 	mov    %rax,0x4dbf(%rip)        # 4064f8 <infile>
  401739:	48 85 c0             	test   %rax,%rax
  40173c:	75 42                	jne    401780 <main+0x100>
  40173e:	48 8b 0d 3b 4a 00 00 	mov    0x4a3b(%rip),%rcx        # 406180 <optarg@GLIBC_2.2.5>
  401745:	48 8d 15 46 2a 00 00 	lea    0x2a46(%rip),%rdx        # 404192 <_IO_stdin_used+0x192>
  40174c:	be 01 00 00 00       	mov    $0x1,%esi
  401751:	48 8b 3d 48 4a 00 00 	mov    0x4a48(%rip),%rdi        # 4061a0 <stderr@GLIBC_2.2.5>
  401758:	e8 d3 fc ff ff       	call   401430 <__fprintf_chk@plt>
  40175d:	b8 01 00 00 00       	mov    $0x1,%eax
  401762:	e9 db 00 00 00       	jmp    401842 <main+0x1c2>
  401767:	ba 10 00 00 00       	mov    $0x10,%edx
  40176c:	be 00 00 00 00       	mov    $0x0,%esi
  401771:	48 8b 3d 08 4a 00 00 	mov    0x4a08(%rip),%rdi        # 406180 <optarg@GLIBC_2.2.5>
  401778:	e8 83 fc ff ff       	call   401400 <strtoul@plt>
  40177d:	41 89 c6             	mov    %eax,%r14d
  401780:	4c 89 e2             	mov    %r12,%rdx
  401783:	48 89 de             	mov    %rbx,%rsi
  401786:	89 ef                	mov    %ebp,%edi
  401788:	e8 63 fc ff ff       	call   4013f0 <getopt@plt>
  40178d:	3c ff                	cmp    $0xff,%al
  40178f:	74 65                	je     4017f6 <main+0x176>
  401791:	0f be c8             	movsbl %al,%ecx
  401794:	83 e8 61             	sub    $0x61,%eax
  401797:	3c 10                	cmp    $0x10,%al
  401799:	77 3b                	ja     4017d6 <main+0x156>
  40179b:	0f b6 c0             	movzbl %al,%eax
  40179e:	48 8d 15 2b 2a 00 00 	lea    0x2a2b(%rip),%rdx        # 4041d0 <_IO_stdin_used+0x1d0>
  4017a5:	48 63 04 82          	movslq (%rdx,%rax,4),%rax
  4017a9:	48 01 d0             	add    %rdx,%rax
  4017ac:	3e ff e0             	notrack jmp *%rax
  4017af:	ba 0a 00 00 00       	mov    $0xa,%edx
  4017b4:	be 00 00 00 00       	mov    $0x0,%esi
  4017b9:	48 8b 3d c0 49 00 00 	mov    0x49c0(%rip),%rdi        # 406180 <optarg@GLIBC_2.2.5>
  4017c0:	e8 9b fb ff ff       	call   401360 <strtol@plt>
  4017c5:	41 89 c5             	mov    %eax,%r13d
  4017c8:	eb b6                	jmp    401780 <main+0x100>
  4017ca:	c7 05 2c 4d 00 00 00 	movl   $0x0,0x4d2c(%rip)        # 406500 <notify>
  4017d1:	00 00 00 
  4017d4:	eb aa                	jmp    401780 <main+0x100>
  4017d6:	89 ca                	mov    %ecx,%edx
  4017d8:	48 8d 35 d0 29 00 00 	lea    0x29d0(%rip),%rsi        # 4041af <_IO_stdin_used+0x1af>
  4017df:	bf 01 00 00 00       	mov    $0x1,%edi
  4017e4:	b8 00 00 00 00       	mov    $0x0,%eax
  4017e9:	e8 e2 fb ff ff       	call   4013d0 <__printf_chk@plt>
  4017ee:	48 8b 3b             	mov    (%rbx),%rdi
  4017f1:	e8 ec fd ff ff       	call   4015e2 <usage>
  4017f6:	be 00 00 00 00       	mov    $0x0,%esi
  4017fb:	44 89 ef             	mov    %r13d,%edi
  4017fe:	e8 53 fd ff ff       	call   401556 <initialize_target>
  401803:	83 3d 0a 4d 00 00 00 	cmpl   $0x0,0x4d0a(%rip)        # 406514 <is_checker>
  40180a:	74 09                	je     401815 <main+0x195>
  40180c:	44 39 35 f9 4c 00 00 	cmp    %r14d,0x4cf9(%rip)        # 40650c <authkey>
  401813:	75 36                	jne    40184b <main+0x1cb>
  401815:	8b 15 f5 4c 00 00    	mov    0x4cf5(%rip),%edx        # 406510 <cookie>
  40181b:	48 8d 35 a0 29 00 00 	lea    0x29a0(%rip),%rsi        # 4041c2 <_IO_stdin_used+0x1c2>
  401822:	bf 01 00 00 00       	mov    $0x1,%edi
  401827:	b8 00 00 00 00       	mov    $0x0,%eax
  40182c:	e8 9f fb ff ff       	call   4013d0 <__printf_chk@plt>
  401831:	48 8b 3d 20 49 00 00 	mov    0x4920(%rip),%rdi        # 406158 <buf_offset>
  401838:	e8 0e 0c 00 00       	call   40244b <stable_launch>
  40183d:	b8 00 00 00 00       	mov    $0x0,%eax
  401842:	5b                   	pop    %rbx
  401843:	5d                   	pop    %rbp
  401844:	41 5c                	pop    %r12
  401846:	41 5d                	pop    %r13
  401848:	41 5e                	pop    %r14
  40184a:	c3                   	ret    
  40184b:	44 89 f2             	mov    %r14d,%edx
  40184e:	48 8d 35 93 28 00 00 	lea    0x2893(%rip),%rsi        # 4040e8 <_IO_stdin_used+0xe8>
  401855:	bf 01 00 00 00       	mov    $0x1,%edi
  40185a:	b8 00 00 00 00       	mov    $0x0,%eax
  40185f:	e8 6c fb ff ff       	call   4013d0 <__printf_chk@plt>
  401864:	b8 00 00 00 00       	mov    $0x0,%eax
  401869:	e8 e5 06 00 00       	call   401f53 <check_fail>
  40186e:	eb a5                	jmp    401815 <main+0x195>

0000000000401870 <scramble>:
  401870:	f3 0f 1e fa          	endbr64 
  401874:	48 83 ec 38          	sub    $0x38,%rsp
  401878:	64 48 8b 04 25 28 00 	mov    %fs:0x28,%rax
  40187f:	00 00 
  401881:	48 89 44 24 28       	mov    %rax,0x28(%rsp)
  401886:	31 c0                	xor    %eax,%eax
  401888:	eb 10                	jmp    40189a <scramble+0x2a>
  40188a:	69 d0 21 c3 00 00    	imul   $0xc321,%eax,%edx
  401890:	01 fa                	add    %edi,%edx
  401892:	89 c1                	mov    %eax,%ecx
  401894:	89 14 8c             	mov    %edx,(%rsp,%rcx,4)
  401897:	83 c0 01             	add    $0x1,%eax
  40189a:	83 f8 09             	cmp    $0x9,%eax
  40189d:	76 eb                	jbe    40188a <scramble+0x1a>
  40189f:	8b 44 24 1c          	mov    0x1c(%rsp),%eax
  4018a3:	69 c0 90 62 00 00    	imul   $0x6290,%eax,%eax
  4018a9:	89 44 24 1c          	mov    %eax,0x1c(%rsp)
  4018ad:	8b 04 24             	mov    (%rsp),%eax
  4018b0:	69 c0 d7 4b 00 00    	imul   $0x4bd7,%eax,%eax
  4018b6:	89 04 24             	mov    %eax,(%rsp)
  4018b9:	8b 44 24 0c          	mov    0xc(%rsp),%eax
  4018bd:	69 c0 0e 48 00 00    	imul   $0x480e,%eax,%eax
  4018c3:	89 44 24 0c          	mov    %eax,0xc(%rsp)
  4018c7:	8b 44 24 1c          	mov    0x1c(%rsp),%eax
  4018cb:	69 c0 a9 a1 00 00    	imul   $0xa1a9,%eax,%eax
  4018d1:	89 44 24 1c          	mov    %eax,0x1c(%rsp)
  4018d5:	8b 44 24 20          	mov    0x20(%rsp),%eax
  4018d9:	69 c0 50 f3 00 00    	imul   $0xf350,%eax,%eax
  4018df:	89 44 24 20          	mov    %eax,0x20(%rsp)
  4018e3:	8b 44 24 18          	mov    0x18(%rsp),%eax
  4018e7:	69 c0 75 81 00 00    	imul   $0x8175,%eax,%eax
  4018ed:	89 44 24 18          	mov    %eax,0x18(%rsp)
  4018f1:	8b 44 24 1c          	mov    0x1c(%rsp),%eax
  4018f5:	69 c0 51 47 00 00    	imul   $0x4751,%eax,%eax
  4018fb:	89 44 24 1c          	mov    %eax,0x1c(%rsp)
  4018ff:	8b 44 24 20          	mov    0x20(%rsp),%eax
  401903:	69 c0 b4 73 00 00    	imul   $0x73b4,%eax,%eax
  401909:	89 44 24 20          	mov    %eax,0x20(%rsp)
  40190d:	8b 44 24 1c          	mov    0x1c(%rsp),%eax
  401911:	69 c0 62 33 00 00    	imul   $0x3362,%eax,%eax
  401917:	89 44 24 1c          	mov    %eax,0x1c(%rsp)
  40191b:	8b 44 24 08          	mov    0x8(%rsp),%eax
  40191f:	69 c0 04 8a 00 00    	imul   $0x8a04,%eax,%eax
  401925:	89 44 24 08          	mov    %eax,0x8(%rsp)
  401929:	8b 04 24             	mov    (%rsp),%eax
  40192c:	69 c0 6c 53 00 00    	imul   $0x536c,%eax,%eax
  401932:	89 04 24             	mov    %eax,(%rsp)
  401935:	8b 44 24 1c          	mov    0x1c(%rsp),%eax
  401939:	69 c0 77 80 00 00    	imul   $0x8077,%eax,%eax
  40193f:	89 44 24 1c          	mov    %eax,0x1c(%rsp)
  401943:	8b 44 24 14          	mov    0x14(%rsp),%eax
  401947:	69 c0 af 79 00 00    	imul   $0x79af,%eax,%eax
  40194d:	89 44 24 14          	mov    %eax,0x14(%rsp)
  401951:	8b 44 24 04          	mov    0x4(%rsp),%eax
  401955:	69 c0 db 92 00 00    	imul   $0x92db,%eax,%eax
  40195b:	89 44 24 04          	mov    %eax,0x4(%rsp)
  40195f:	8b 44 24 04          	mov    0x4(%rsp),%eax
  401963:	69 c0 9a 08 00 00    	imul   $0x89a,%eax,%eax
  401969:	89 44 24 04          	mov    %eax,0x4(%rsp)
  40196d:	8b 44 24 04          	mov    0x4(%rsp),%eax
  401971:	69 c0 9e c8 00 00    	imul   $0xc89e,%eax,%eax
  401977:	89 44 24 04          	mov    %eax,0x4(%rsp)
  40197b:	8b 44 24 20          	mov    0x20(%rsp),%eax
  40197f:	69 c0 88 c6 00 00    	imul   $0xc688,%eax,%eax
  401985:	89 44 24 20          	mov    %eax,0x20(%rsp)
  401989:	8b 44 24 04          	mov    0x4(%rsp),%eax
  40198d:	69 c0 1b e3 00 00    	imul   $0xe31b,%eax,%eax
  401993:	89 44 24 04          	mov    %eax,0x4(%rsp)
  401997:	8b 04 24             	mov    (%rsp),%eax
  40199a:	69 c0 d5 3c 00 00    	imul   $0x3cd5,%eax,%eax
  4019a0:	89 04 24             	mov    %eax,(%rsp)
  4019a3:	8b 44 24 08          	mov    0x8(%rsp),%eax
  4019a7:	69 c0 c6 1d 00 00    	imul   $0x1dc6,%eax,%eax
  4019ad:	89 44 24 08          	mov    %eax,0x8(%rsp)
  4019b1:	8b 44 24 14          	mov    0x14(%rsp),%eax
  4019b5:	69 c0 3a 25 00 00    	imul   $0x253a,%eax,%eax
  4019bb:	89 44 24 14          	mov    %eax,0x14(%rsp)
  4019bf:	8b 44 24 24          	mov    0x24(%rsp),%eax
  4019c3:	69 c0 dc 12 00 00    	imul   $0x12dc,%eax,%eax
  4019c9:	89 44 24 24          	mov    %eax,0x24(%rsp)
  4019cd:	8b 44 24 10          	mov    0x10(%rsp),%eax
  4019d1:	69 c0 3d e2 00 00    	imul   $0xe23d,%eax,%eax
  4019d7:	89 44 24 10          	mov    %eax,0x10(%rsp)
  4019db:	8b 44 24 0c          	mov    0xc(%rsp),%eax
  4019df:	69 c0 dc 8b 00 00    	imul   $0x8bdc,%eax,%eax
  4019e5:	89 44 24 0c          	mov    %eax,0xc(%rsp)
  4019e9:	8b 44 24 10          	mov    0x10(%rsp),%eax
  4019ed:	69 c0 27 af 00 00    	imul   $0xaf27,%eax,%eax
  4019f3:	89 44 24 10          	mov    %eax,0x10(%rsp)
  4019f7:	8b 44 24 20          	mov    0x20(%rsp),%eax
  4019fb:	69 c0 fb 35 00 00    	imul   $0x35fb,%eax,%eax
  401a01:	89 44 24 20          	mov    %eax,0x20(%rsp)
  401a05:	8b 44 24 18          	mov    0x18(%rsp),%eax
  401a09:	69 c0 08 24 00 00    	imul   $0x2408,%eax,%eax
  401a0f:	89 44 24 18          	mov    %eax,0x18(%rsp)
  401a13:	8b 44 24 1c          	mov    0x1c(%rsp),%eax
  401a17:	69 c0 4f 01 00 00    	imul   $0x14f,%eax,%eax
  401a1d:	89 44 24 1c          	mov    %eax,0x1c(%rsp)
  401a21:	8b 44 24 18          	mov    0x18(%rsp),%eax
  401a25:	69 c0 da 2e 00 00    	imul   $0x2eda,%eax,%eax
  401a2b:	89 44 24 18          	mov    %eax,0x18(%rsp)
  401a2f:	8b 44 24 20          	mov    0x20(%rsp),%eax
  401a33:	69 c0 35 a3 00 00    	imul   $0xa335,%eax,%eax
  401a39:	89 44 24 20          	mov    %eax,0x20(%rsp)
  401a3d:	8b 44 24 0c          	mov    0xc(%rsp),%eax
  401a41:	69 c0 f5 1e 00 00    	imul   $0x1ef5,%eax,%eax
  401a47:	89 44 24 0c          	mov    %eax,0xc(%rsp)
  401a4b:	8b 44 24 1c          	mov    0x1c(%rsp),%eax
  401a4f:	69 c0 9f a2 00 00    	imul   $0xa29f,%eax,%eax
  401a55:	89 44 24 1c          	mov    %eax,0x1c(%rsp)
  401a59:	8b 44 24 08          	mov    0x8(%rsp),%eax
  401a5d:	69 c0 49 80 00 00    	imul   $0x8049,%eax,%eax
  401a63:	89 44 24 08          	mov    %eax,0x8(%rsp)
  401a67:	8b 44 24 1c          	mov    0x1c(%rsp),%eax
  401a6b:	69 c0 14 f4 00 00    	imul   $0xf414,%eax,%eax
  401a71:	89 44 24 1c          	mov    %eax,0x1c(%rsp)
  401a75:	8b 44 24 20          	mov    0x20(%rsp),%eax
  401a79:	69 c0 7f 0a 00 00    	imul   $0xa7f,%eax,%eax
  401a7f:	89 44 24 20          	mov    %eax,0x20(%rsp)
  401a83:	8b 44 24 14          	mov    0x14(%rsp),%eax
  401a87:	69 c0 45 ed 00 00    	imul   $0xed45,%eax,%eax
  401a8d:	89 44 24 14          	mov    %eax,0x14(%rsp)
  401a91:	8b 44 24 24          	mov    0x24(%rsp),%eax
  401a95:	69 c0 16 b1 00 00    	imul   $0xb116,%eax,%eax
  401a9b:	89 44 24 24          	mov    %eax,0x24(%rsp)
  401a9f:	8b 44 24 04          	mov    0x4(%rsp),%eax
  401aa3:	69 c0 45 9c 00 00    	imul   $0x9c45,%eax,%eax
  401aa9:	89 44 24 04          	mov    %eax,0x4(%rsp)
  401aad:	8b 44 24 14          	mov    0x14(%rsp),%eax
  401ab1:	69 c0 b2 86 00 00    	imul   $0x86b2,%eax,%eax
  401ab7:	89 44 24 14          	mov    %eax,0x14(%rsp)
  401abb:	8b 44 24 04          	mov    0x4(%rsp),%eax
  401abf:	69 c0 f2 a8 00 00    	imul   $0xa8f2,%eax,%eax
  401ac5:	89 44 24 04          	mov    %eax,0x4(%rsp)
  401ac9:	8b 44 24 08          	mov    0x8(%rsp),%eax
  401acd:	69 c0 01 3e 00 00    	imul   $0x3e01,%eax,%eax
  401ad3:	89 44 24 08          	mov    %eax,0x8(%rsp)
  401ad7:	8b 44 24 1c          	mov    0x1c(%rsp),%eax
  401adb:	69 c0 6d 38 00 00    	imul   $0x386d,%eax,%eax
  401ae1:	89 44 24 1c          	mov    %eax,0x1c(%rsp)
  401ae5:	8b 44 24 20          	mov    0x20(%rsp),%eax
  401ae9:	69 c0 60 95 00 00    	imul   $0x9560,%eax,%eax
  401aef:	89 44 24 20          	mov    %eax,0x20(%rsp)
  401af3:	8b 44 24 08          	mov    0x8(%rsp),%eax
  401af7:	69 c0 c1 ff 00 00    	imul   $0xffc1,%eax,%eax
  401afd:	89 44 24 08          	mov    %eax,0x8(%rsp)
  401b01:	8b 44 24 20          	mov    0x20(%rsp),%eax
  401b05:	69 c0 e6 cd 00 00    	imul   $0xcde6,%eax,%eax
  401b0b:	89 44 24 20          	mov    %eax,0x20(%rsp)
  401b0f:	8b 44 24 0c          	mov    0xc(%rsp),%eax
  401b13:	69 c0 af fb 00 00    	imul   $0xfbaf,%eax,%eax
  401b19:	89 44 24 0c          	mov    %eax,0xc(%rsp)
  401b1d:	8b 44 24 08          	mov    0x8(%rsp),%eax
  401b21:	69 c0 c9 0e 00 00    	imul   $0xec9,%eax,%eax
  401b27:	89 44 24 08          	mov    %eax,0x8(%rsp)
  401b2b:	8b 44 24 14          	mov    0x14(%rsp),%eax
  401b2f:	69 c0 59 d2 00 00    	imul   $0xd259,%eax,%eax
  401b35:	89 44 24 14          	mov    %eax,0x14(%rsp)
  401b39:	8b 44 24 14          	mov    0x14(%rsp),%eax
  401b3d:	69 c0 09 24 00 00    	imul   $0x2409,%eax,%eax
  401b43:	89 44 24 14          	mov    %eax,0x14(%rsp)
  401b47:	8b 44 24 08          	mov    0x8(%rsp),%eax
  401b4b:	69 c0 32 4c 00 00    	imul   $0x4c32,%eax,%eax
  401b51:	89 44 24 08          	mov    %eax,0x8(%rsp)
  401b55:	8b 44 24 0c          	mov    0xc(%rsp),%eax
  401b59:	69 c0 48 d8 00 00    	imul   $0xd848,%eax,%eax
  401b5f:	89 44 24 0c          	mov    %eax,0xc(%rsp)
  401b63:	8b 44 24 08          	mov    0x8(%rsp),%eax
  401b67:	69 c0 41 5e 00 00    	imul   $0x5e41,%eax,%eax
  401b6d:	89 44 24 08          	mov    %eax,0x8(%rsp)
  401b71:	8b 44 24 10          	mov    0x10(%rsp),%eax
  401b75:	69 c0 98 39 00 00    	imul   $0x3998,%eax,%eax
  401b7b:	89 44 24 10          	mov    %eax,0x10(%rsp)
  401b7f:	8b 04 24             	mov    (%rsp),%eax
  401b82:	69 c0 b1 1c 00 00    	imul   $0x1cb1,%eax,%eax
  401b88:	89 04 24             	mov    %eax,(%rsp)
  401b8b:	8b 44 24 1c          	mov    0x1c(%rsp),%eax
  401b8f:	69 c0 a7 22 00 00    	imul   $0x22a7,%eax,%eax
  401b95:	89 44 24 1c          	mov    %eax,0x1c(%rsp)
  401b99:	8b 44 24 08          	mov    0x8(%rsp),%eax
  401b9d:	69 c0 24 f6 00 00    	imul   $0xf624,%eax,%eax
  401ba3:	89 44 24 08          	mov    %eax,0x8(%rsp)
  401ba7:	8b 44 24 0c          	mov    0xc(%rsp),%eax
  401bab:	69 c0 91 a4 00 00    	imul   $0xa491,%eax,%eax
  401bb1:	89 44 24 0c          	mov    %eax,0xc(%rsp)
  401bb5:	8b 44 24 08          	mov    0x8(%rsp),%eax
  401bb9:	69 c0 b2 c2 00 00    	imul   $0xc2b2,%eax,%eax
  401bbf:	89 44 24 08          	mov    %eax,0x8(%rsp)
  401bc3:	8b 44 24 24          	mov    0x24(%rsp),%eax
  401bc7:	69 c0 4e 68 00 00    	imul   $0x684e,%eax,%eax
  401bcd:	89 44 24 24          	mov    %eax,0x24(%rsp)
  401bd1:	8b 44 24 20          	mov    0x20(%rsp),%eax
  401bd5:	69 c0 2c fe 00 00    	imul   $0xfe2c,%eax,%eax
  401bdb:	89 44 24 20          	mov    %eax,0x20(%rsp)
  401bdf:	8b 44 24 24          	mov    0x24(%rsp),%eax
  401be3:	69 c0 69 65 00 00    	imul   $0x6569,%eax,%eax
  401be9:	89 44 24 24          	mov    %eax,0x24(%rsp)
  401bed:	8b 04 24             	mov    (%rsp),%eax
  401bf0:	69 c0 10 23 00 00    	imul   $0x2310,%eax,%eax
  401bf6:	89 04 24             	mov    %eax,(%rsp)
  401bf9:	8b 44 24 24          	mov    0x24(%rsp),%eax
  401bfd:	69 c0 2a 98 00 00    	imul   $0x982a,%eax,%eax
  401c03:	89 44 24 24          	mov    %eax,0x24(%rsp)
  401c07:	8b 44 24 04          	mov    0x4(%rsp),%eax
  401c0b:	69 c0 45 03 00 00    	imul   $0x345,%eax,%eax
  401c11:	89 44 24 04          	mov    %eax,0x4(%rsp)
  401c15:	8b 44 24 04          	mov    0x4(%rsp),%eax
  401c19:	69 c0 d6 bb 00 00    	imul   $0xbbd6,%eax,%eax
  401c1f:	89 44 24 04          	mov    %eax,0x4(%rsp)
  401c23:	8b 04 24             	mov    (%rsp),%eax
  401c26:	69 c0 bb ea 00 00    	imul   $0xeabb,%eax,%eax
  401c2c:	89 04 24             	mov    %eax,(%rsp)
  401c2f:	8b 44 24 08          	mov    0x8(%rsp),%eax
  401c33:	69 c0 ee 88 00 00    	imul   $0x88ee,%eax,%eax
  401c39:	89 44 24 08          	mov    %eax,0x8(%rsp)
  401c3d:	8b 44 24 04          	mov    0x4(%rsp),%eax
  401c41:	69 c0 7c 1d 00 00    	imul   $0x1d7c,%eax,%eax
  401c47:	89 44 24 04          	mov    %eax,0x4(%rsp)
  401c4b:	8b 44 24 1c          	mov    0x1c(%rsp),%eax
  401c4f:	69 c0 83 43 00 00    	imul   $0x4383,%eax,%eax
  401c55:	89 44 24 1c          	mov    %eax,0x1c(%rsp)
  401c59:	8b 44 24 20          	mov    0x20(%rsp),%eax
  401c5d:	69 c0 d1 82 00 00    	imul   $0x82d1,%eax,%eax
  401c63:	89 44 24 20          	mov    %eax,0x20(%rsp)
  401c67:	8b 44 24 1c          	mov    0x1c(%rsp),%eax
  401c6b:	69 c0 d1 ff 00 00    	imul   $0xffd1,%eax,%eax
  401c71:	89 44 24 1c          	mov    %eax,0x1c(%rsp)
  401c75:	8b 44 24 18          	mov    0x18(%rsp),%eax
  401c79:	69 c0 d3 c6 00 00    	imul   $0xc6d3,%eax,%eax
  401c7f:	89 44 24 18          	mov    %eax,0x18(%rsp)
  401c83:	8b 44 24 14          	mov    0x14(%rsp),%eax
  401c87:	69 c0 87 a7 00 00    	imul   $0xa787,%eax,%eax
  401c8d:	89 44 24 14          	mov    %eax,0x14(%rsp)
  401c91:	b8 00 00 00 00       	mov    $0x0,%eax
  401c96:	ba 00 00 00 00       	mov    $0x0,%edx
  401c9b:	eb 0a                	jmp    401ca7 <scramble+0x437>
  401c9d:	89 c1                	mov    %eax,%ecx
  401c9f:	8b 0c 8c             	mov    (%rsp,%rcx,4),%ecx
  401ca2:	01 ca                	add    %ecx,%edx
  401ca4:	83 c0 01             	add    $0x1,%eax
  401ca7:	83 f8 09             	cmp    $0x9,%eax
  401caa:	76 f1                	jbe    401c9d <scramble+0x42d>
  401cac:	48 8b 44 24 28       	mov    0x28(%rsp),%rax
  401cb1:	64 48 2b 04 25 28 00 	sub    %fs:0x28,%rax
  401cb8:	00 00 
  401cba:	75 07                	jne    401cc3 <scramble+0x453>
  401cbc:	89 d0                	mov    %edx,%eax
  401cbe:	48 83 c4 38          	add    $0x38,%rsp
  401cc2:	c3                   	ret    
  401cc3:	e8 08 f6 ff ff       	call   4012d0 <__stack_chk_fail@plt>

0000000000401cc8 <getbuf>:
  401cc8:	f3 0f 1e fa          	endbr64 
  401ccc:	48 83 ec 38          	sub    $0x38,%rsp
  401cd0:	48 89 e7             	mov    %rsp,%rdi
  401cd3:	e8 b9 02 00 00       	call   401f91 <Gets>
  401cd8:	b8 01 00 00 00       	mov    $0x1,%eax
  401cdd:	48 83 c4 38          	add    $0x38,%rsp
  401ce1:	c3                   	ret    

0000000000401ce2 <touch1>:
  401ce2:	f3 0f 1e fa          	endbr64 
  401ce6:	50                   	push   %rax
  401ce7:	58                   	pop    %rax
  401ce8:	48 83 ec 08          	sub    $0x8,%rsp
  401cec:	c7 05 12 48 00 00 01 	movl   $0x1,0x4812(%rip)        # 406508 <vlevel>
  401cf3:	00 00 00 
  401cf6:	48 8d 3d 31 25 00 00 	lea    0x2531(%rip),%rdi        # 40422e <_IO_stdin_used+0x22e>
  401cfd:	e8 9e f5 ff ff       	call   4012a0 <puts@plt>
  401d02:	48 8b 3d 57 44 00 00 	mov    0x4457(%rip),%rdi        # 406160 <stdout@GLIBC_2.2.5>
  401d09:	e8 92 f6 ff ff       	call   4013a0 <fflush@plt>
  401d0e:	bf 01 00 00 00       	mov    $0x1,%edi
  401d13:	e8 d6 03 00 00       	call   4020ee <validate>
  401d18:	bf 00 00 00 00       	mov    $0x0,%edi
  401d1d:	e8 ee f6 ff ff       	call   401410 <exit@plt>

0000000000401d22 <touch2>:
  401d22:	f3 0f 1e fa          	endbr64 
  401d26:	50                   	push   %rax
  401d27:	58                   	pop    %rax
  401d28:	48 83 ec 08          	sub    $0x8,%rsp
  401d2c:	89 fa                	mov    %edi,%edx
  401d2e:	c7 05 d0 47 00 00 02 	movl   $0x2,0x47d0(%rip)        # 406508 <vlevel>
  401d35:	00 00 00 
  401d38:	39 3d d2 47 00 00    	cmp    %edi,0x47d2(%rip)        # 406510 <cookie>
  401d3e:	74 2a                	je     401d6a <touch2+0x48>
  401d40:	48 8d 35 31 25 00 00 	lea    0x2531(%rip),%rsi        # 404278 <_IO_stdin_used+0x278>
  401d47:	bf 01 00 00 00       	mov    $0x1,%edi
  401d4c:	b8 00 00 00 00       	mov    $0x0,%eax
  401d51:	e8 7a f6 ff ff       	call   4013d0 <__printf_chk@plt>
  401d56:	bf 02 00 00 00       	mov    $0x2,%edi
  401d5b:	e8 62 04 00 00       	call   4021c2 <fail>
  401d60:	bf 00 00 00 00       	mov    $0x0,%edi
  401d65:	e8 a6 f6 ff ff       	call   401410 <exit@plt>
  401d6a:	48 8d 35 df 24 00 00 	lea    0x24df(%rip),%rsi        # 404250 <_IO_stdin_used+0x250>
  401d71:	bf 01 00 00 00       	mov    $0x1,%edi
  401d76:	b8 00 00 00 00       	mov    $0x0,%eax
  401d7b:	e8 50 f6 ff ff       	call   4013d0 <__printf_chk@plt>
  401d80:	bf 02 00 00 00       	mov    $0x2,%edi
  401d85:	e8 64 03 00 00       	call   4020ee <validate>
  401d8a:	eb d4                	jmp    401d60 <touch2+0x3e>

0000000000401d8c <hexmatch>:
  401d8c:	f3 0f 1e fa          	endbr64 
  401d90:	41 54                	push   %r12
  401d92:	55                   	push   %rbp
  401d93:	53                   	push   %rbx
  401d94:	48 83 c4 80          	add    $0xffffffffffffff80,%rsp
  401d98:	89 fd                	mov    %edi,%ebp
  401d9a:	48 89 f3             	mov    %rsi,%rbx
  401d9d:	64 48 8b 04 25 28 00 	mov    %fs:0x28,%rax
  401da4:	00 00 
  401da6:	48 89 44 24 78       	mov    %rax,0x78(%rsp)
  401dab:	31 c0                	xor    %eax,%eax
  401dad:	e8 de f5 ff ff       	call   401390 <random@plt>
  401db2:	48 89 c1             	mov    %rax,%rcx
  401db5:	48 ba 0b d7 a3 70 3d 	movabs $0xa3d70a3d70a3d70b,%rdx
  401dbc:	0a d7 a3 
  401dbf:	48 f7 ea             	imul   %rdx
  401dc2:	48 01 ca             	add    %rcx,%rdx
  401dc5:	48 c1 fa 06          	sar    $0x6,%rdx
  401dc9:	48 89 c8             	mov    %rcx,%rax
  401dcc:	48 c1 f8 3f          	sar    $0x3f,%rax
  401dd0:	48 29 c2             	sub    %rax,%rdx
  401dd3:	48 8d 04 92          	lea    (%rdx,%rdx,4),%rax
  401dd7:	48 8d 04 80          	lea    (%rax,%rax,4),%rax
  401ddb:	48 c1 e0 02          	shl    $0x2,%rax
  401ddf:	48 29 c1             	sub    %rax,%rcx
  401de2:	4c 8d 24 0c          	lea    (%rsp,%rcx,1),%r12
  401de6:	41 89 e8             	mov    %ebp,%r8d
  401de9:	48 8d 0d 5b 24 00 00 	lea    0x245b(%rip),%rcx        # 40424b <_IO_stdin_used+0x24b>
  401df0:	48 c7 c2 ff ff ff ff 	mov    $0xffffffffffffffff,%rdx
  401df7:	be 01 00 00 00       	mov    $0x1,%esi
  401dfc:	4c 89 e7             	mov    %r12,%rdi
  401dff:	b8 00 00 00 00       	mov    $0x0,%eax
  401e04:	e8 47 f6 ff ff       	call   401450 <__sprintf_chk@plt>
  401e09:	ba 09 00 00 00       	mov    $0x9,%edx
  401e0e:	4c 89 e6             	mov    %r12,%rsi
  401e11:	48 89 df             	mov    %rbx,%rdi
  401e14:	e8 57 f4 ff ff       	call   401270 <strncmp@plt>
  401e19:	85 c0                	test   %eax,%eax
  401e1b:	0f 94 c0             	sete   %al
  401e1e:	48 8b 54 24 78       	mov    0x78(%rsp),%rdx
  401e23:	64 48 2b 14 25 28 00 	sub    %fs:0x28,%rdx
  401e2a:	00 00 
  401e2c:	75 0c                	jne    401e3a <hexmatch+0xae>
  401e2e:	0f b6 c0             	movzbl %al,%eax
  401e31:	48 83 ec 80          	sub    $0xffffffffffffff80,%rsp
  401e35:	5b                   	pop    %rbx
  401e36:	5d                   	pop    %rbp
  401e37:	41 5c                	pop    %r12
  401e39:	c3                   	ret    
  401e3a:	e8 91 f4 ff ff       	call   4012d0 <__stack_chk_fail@plt>

0000000000401e3f <touch3>:
  401e3f:	f3 0f 1e fa          	endbr64 
  401e43:	53                   	push   %rbx
  401e44:	48 89 fb             	mov    %rdi,%rbx
  401e47:	c7 05 b7 46 00 00 03 	movl   $0x3,0x46b7(%rip)        # 406508 <vlevel>
  401e4e:	00 00 00 
  401e51:	48 89 fe             	mov    %rdi,%rsi
  401e54:	8b 3d b6 46 00 00    	mov    0x46b6(%rip),%edi        # 406510 <cookie>
  401e5a:	e8 2d ff ff ff       	call   401d8c <hexmatch>
  401e5f:	85 c0                	test   %eax,%eax
  401e61:	74 2d                	je     401e90 <touch3+0x51>
  401e63:	48 89 da             	mov    %rbx,%rdx
  401e66:	48 8d 35 33 24 00 00 	lea    0x2433(%rip),%rsi        # 4042a0 <_IO_stdin_used+0x2a0>
  401e6d:	bf 01 00 00 00       	mov    $0x1,%edi
  401e72:	b8 00 00 00 00       	mov    $0x0,%eax
  401e77:	e8 54 f5 ff ff       	call   4013d0 <__printf_chk@plt>
  401e7c:	bf 03 00 00 00       	mov    $0x3,%edi
  401e81:	e8 68 02 00 00       	call   4020ee <validate>
  401e86:	bf 00 00 00 00       	mov    $0x0,%edi
  401e8b:	e8 80 f5 ff ff       	call   401410 <exit@plt>
  401e90:	48 89 da             	mov    %rbx,%rdx
  401e93:	48 8d 35 2e 24 00 00 	lea    0x242e(%rip),%rsi        # 4042c8 <_IO_stdin_used+0x2c8>
  401e9a:	bf 01 00 00 00       	mov    $0x1,%edi
  401e9f:	b8 00 00 00 00       	mov    $0x0,%eax
  401ea4:	e8 27 f5 ff ff       	call   4013d0 <__printf_chk@plt>
  401ea9:	bf 03 00 00 00       	mov    $0x3,%edi
  401eae:	e8 0f 03 00 00       	call   4021c2 <fail>
  401eb3:	eb d1                	jmp    401e86 <touch3+0x47>

0000000000401eb5 <test>:
  401eb5:	f3 0f 1e fa          	endbr64 
  401eb9:	48 83 ec 08          	sub    $0x8,%rsp
  401ebd:	b8 00 00 00 00       	mov    $0x0,%eax
  401ec2:	e8 01 fe ff ff       	call   401cc8 <getbuf>
  401ec7:	89 c2                	mov    %eax,%edx
  401ec9:	48 8d 35 20 24 00 00 	lea    0x2420(%rip),%rsi        # 4042f0 <_IO_stdin_used+0x2f0>
  401ed0:	bf 01 00 00 00       	mov    $0x1,%edi
  401ed5:	b8 00 00 00 00       	mov    $0x0,%eax
  401eda:	e8 f1 f4 ff ff       	call   4013d0 <__printf_chk@plt>
  401edf:	48 83 c4 08          	add    $0x8,%rsp
  401ee3:	c3                   	ret    

0000000000401ee4 <save_char>:
  401ee4:	8b 05 3a 52 00 00    	mov    0x523a(%rip),%eax        # 407124 <gets_cnt>
  401eea:	3d ff 03 00 00       	cmp    $0x3ff,%eax
  401eef:	7f 4a                	jg     401f3b <save_char+0x57>
  401ef1:	89 f9                	mov    %edi,%ecx
  401ef3:	c0 e9 04             	shr    $0x4,%cl
  401ef6:	8d 14 40             	lea    (%rax,%rax,2),%edx
  401ef9:	4c 8d 05 60 26 00 00 	lea    0x2660(%rip),%r8        # 404560 <trans_char>
  401f00:	83 e1 0f             	and    $0xf,%ecx
  401f03:	45 0f b6 0c 08       	movzbl (%r8,%rcx,1),%r9d
  401f08:	48 8d 0d 11 46 00 00 	lea    0x4611(%rip),%rcx        # 406520 <gets_buf>
  401f0f:	48 63 f2             	movslq %edx,%rsi
  401f12:	44 88 0c 31          	mov    %r9b,(%rcx,%rsi,1)
  401f16:	8d 72 01             	lea    0x1(%rdx),%esi
  401f19:	83 e7 0f             	and    $0xf,%edi
  401f1c:	41 0f b6 3c 38       	movzbl (%r8,%rdi,1),%edi
  401f21:	48 63 f6             	movslq %esi,%rsi
  401f24:	40 88 3c 31          	mov    %dil,(%rcx,%rsi,1)
  401f28:	83 c2 02             	add    $0x2,%edx
  401f2b:	48 63 d2             	movslq %edx,%rdx
  401f2e:	c6 04 11 20          	movb   $0x20,(%rcx,%rdx,1)
  401f32:	83 c0 01             	add    $0x1,%eax
  401f35:	89 05 e9 51 00 00    	mov    %eax,0x51e9(%rip)        # 407124 <gets_cnt>
  401f3b:	c3                   	ret    

0000000000401f3c <save_term>:
  401f3c:	8b 05 e2 51 00 00    	mov    0x51e2(%rip),%eax        # 407124 <gets_cnt>
  401f42:	8d 04 40             	lea    (%rax,%rax,2),%eax
  401f45:	48 98                	cltq   
  401f47:	48 8d 15 d2 45 00 00 	lea    0x45d2(%rip),%rdx        # 406520 <gets_buf>
  401f4e:	c6 04 02 00          	movb   $0x0,(%rdx,%rax,1)
  401f52:	c3                   	ret    

0000000000401f53 <check_fail>:
  401f53:	f3 0f 1e fa          	endbr64 
  401f57:	50                   	push   %rax
  401f58:	58                   	pop    %rax
  401f59:	48 83 ec 08          	sub    $0x8,%rsp
  401f5d:	0f be 15 8c 45 00 00 	movsbl 0x458c(%rip),%edx        # 4064f0 <target_prefix>
  401f64:	4c 8d 05 b5 45 00 00 	lea    0x45b5(%rip),%r8        # 406520 <gets_buf>
  401f6b:	8b 0d 93 45 00 00    	mov    0x4593(%rip),%ecx        # 406504 <check_level>
  401f71:	48 8d 35 9b 23 00 00 	lea    0x239b(%rip),%rsi        # 404313 <_IO_stdin_used+0x313>
  401f78:	bf 01 00 00 00       	mov    $0x1,%edi
  401f7d:	b8 00 00 00 00       	mov    $0x0,%eax
  401f82:	e8 49 f4 ff ff       	call   4013d0 <__printf_chk@plt>
  401f87:	bf 01 00 00 00       	mov    $0x1,%edi
  401f8c:	e8 7f f4 ff ff       	call   401410 <exit@plt>

0000000000401f91 <Gets>:
  401f91:	f3 0f 1e fa          	endbr64 
  401f95:	41 54                	push   %r12
  401f97:	55                   	push   %rbp
  401f98:	53                   	push   %rbx
  401f99:	49 89 fc             	mov    %rdi,%r12
  401f9c:	c7 05 7e 51 00 00 00 	movl   $0x0,0x517e(%rip)        # 407124 <gets_cnt>
  401fa3:	00 00 00 
  401fa6:	48 89 fb             	mov    %rdi,%rbx
  401fa9:	eb 11                	jmp    401fbc <Gets+0x2b>
  401fab:	48 8d 6b 01          	lea    0x1(%rbx),%rbp
  401faf:	88 03                	mov    %al,(%rbx)
  401fb1:	0f b6 f8             	movzbl %al,%edi
  401fb4:	e8 2b ff ff ff       	call   401ee4 <save_char>
  401fb9:	48 89 eb             	mov    %rbp,%rbx
  401fbc:	48 8b 3d 35 45 00 00 	mov    0x4535(%rip),%rdi        # 4064f8 <infile>
  401fc3:	e8 78 f4 ff ff       	call   401440 <getc@plt>
  401fc8:	83 f8 ff             	cmp    $0xffffffff,%eax
  401fcb:	74 05                	je     401fd2 <Gets+0x41>
  401fcd:	83 f8 0a             	cmp    $0xa,%eax
  401fd0:	75 d9                	jne    401fab <Gets+0x1a>
  401fd2:	c6 03 00             	movb   $0x0,(%rbx)
  401fd5:	b8 00 00 00 00       	mov    $0x0,%eax
  401fda:	e8 5d ff ff ff       	call   401f3c <save_term>
  401fdf:	4c 89 e0             	mov    %r12,%rax
  401fe2:	5b                   	pop    %rbx
  401fe3:	5d                   	pop    %rbp
  401fe4:	41 5c                	pop    %r12
  401fe6:	c3                   	ret    

0000000000401fe7 <notify_server>:
  401fe7:	f3 0f 1e fa          	endbr64 
  401feb:	53                   	push   %rbx
  401fec:	48 81 ec 00 10 00 00 	sub    $0x1000,%rsp
  401ff3:	48 83 0c 24 00       	orq    $0x0,(%rsp)
  401ff8:	48 81 ec 00 10 00 00 	sub    $0x1000,%rsp
  401fff:	48 83 0c 24 00       	orq    $0x0,(%rsp)
  402004:	48 83 ec 10          	sub    $0x10,%rsp
  402008:	64 48 8b 04 25 28 00 	mov    %fs:0x28,%rax
  40200f:	00 00 
  402011:	48 89 84 24 08 20 00 	mov    %rax,0x2008(%rsp)
  402018:	00 
  402019:	31 c0                	xor    %eax,%eax
  40201b:	83 3d f2 44 00 00 00 	cmpl   $0x0,0x44f2(%rip)        # 406514 <is_checker>
  402022:	75 78                	jne    40209c <notify_server+0xb5>
  402024:	81 3d f6 50 00 00 9c 	cmpl   $0x1f9c,0x50f6(%rip)        # 407124 <gets_cnt>
  40202b:	1f 00 00 
  40202e:	0f 8f 84 00 00 00    	jg     4020b8 <notify_server+0xd1>
  402034:	0f be 05 b5 44 00 00 	movsbl 0x44b5(%rip),%eax        # 4064f0 <target_prefix>
  40203b:	83 3d be 44 00 00 00 	cmpl   $0x0,0x44be(%rip)        # 406500 <notify>
  402042:	0f 84 8b 00 00 00    	je     4020d3 <notify_server+0xec>
  402048:	8b 15 be 44 00 00    	mov    0x44be(%rip),%edx        # 40650c <authkey>
  40204e:	85 ff                	test   %edi,%edi
  402050:	0f 84 87 00 00 00    	je     4020dd <notify_server+0xf6>
  402056:	48 8d 1d cc 22 00 00 	lea    0x22cc(%rip),%rbx        # 404329 <_IO_stdin_used+0x329>
  40205d:	48 89 e7             	mov    %rsp,%rdi
  402060:	48 8d 0d b9 44 00 00 	lea    0x44b9(%rip),%rcx        # 406520 <gets_buf>
  402067:	51                   	push   %rcx
  402068:	56                   	push   %rsi
  402069:	50                   	push   %rax
  40206a:	52                   	push   %rdx
  40206b:	49 89 d9             	mov    %rbx,%r9
  40206e:	44 8b 05 c3 40 00 00 	mov    0x40c3(%rip),%r8d        # 406138 <target_id>
  402075:	48 8d 0d b7 22 00 00 	lea    0x22b7(%rip),%rcx        # 404333 <_IO_stdin_used+0x333>
  40207c:	ba 00 20 00 00       	mov    $0x2000,%edx
  402081:	be 01 00 00 00       	mov    $0x1,%esi
  402086:	b8 00 00 00 00       	mov    $0x0,%eax
  40208b:	e8 c0 f3 ff ff       	call   401450 <__sprintf_chk@plt>
  402090:	48 83 c4 20          	add    $0x20,%rsp
  402094:	48 89 df             	mov    %rbx,%rdi
  402097:	e8 04 f2 ff ff       	call   4012a0 <puts@plt>
  40209c:	48 8b 84 24 08 20 00 	mov    0x2008(%rsp),%rax
  4020a3:	00 
  4020a4:	64 48 2b 04 25 28 00 	sub    %fs:0x28,%rax
  4020ab:	00 00 
  4020ad:	75 3a                	jne    4020e9 <notify_server+0x102>
  4020af:	48 81 c4 10 20 00 00 	add    $0x2010,%rsp
  4020b6:	5b                   	pop    %rbx
  4020b7:	c3                   	ret    
  4020b8:	48 8d 35 39 23 00 00 	lea    0x2339(%rip),%rsi        # 4043f8 <_IO_stdin_used+0x3f8>
  4020bf:	bf 01 00 00 00       	mov    $0x1,%edi
  4020c4:	e8 07 f3 ff ff       	call   4013d0 <__printf_chk@plt>
  4020c9:	bf 01 00 00 00       	mov    $0x1,%edi
  4020ce:	e8 3d f3 ff ff       	call   401410 <exit@plt>
  4020d3:	ba ff ff ff ff       	mov    $0xffffffff,%edx
  4020d8:	e9 71 ff ff ff       	jmp    40204e <notify_server+0x67>
  4020dd:	48 8d 1d 4a 22 00 00 	lea    0x224a(%rip),%rbx        # 40432e <_IO_stdin_used+0x32e>
  4020e4:	e9 74 ff ff ff       	jmp    40205d <notify_server+0x76>
  4020e9:	e8 e2 f1 ff ff       	call   4012d0 <__stack_chk_fail@plt>

00000000004020ee <validate>:
  4020ee:	f3 0f 1e fa          	endbr64 
  4020f2:	53                   	push   %rbx
  4020f3:	89 fb                	mov    %edi,%ebx
  4020f5:	83 3d 18 44 00 00 00 	cmpl   $0x0,0x4418(%rip)        # 406514 <is_checker>
  4020fc:	74 72                	je     402170 <validate+0x82>
  4020fe:	39 3d 04 44 00 00    	cmp    %edi,0x4404(%rip)        # 406508 <vlevel>
  402104:	75 32                	jne    402138 <validate+0x4a>
  402106:	8b 15 f8 43 00 00    	mov    0x43f8(%rip),%edx        # 406504 <check_level>
  40210c:	39 fa                	cmp    %edi,%edx
  40210e:	75 3e                	jne    40214e <validate+0x60>
  402110:	0f be 15 d9 43 00 00 	movsbl 0x43d9(%rip),%edx        # 4064f0 <target_prefix>
  402117:	4c 8d 05 02 44 00 00 	lea    0x4402(%rip),%r8        # 406520 <gets_buf>
  40211e:	89 f9                	mov    %edi,%ecx
  402120:	48 8d 35 46 22 00 00 	lea    0x2246(%rip),%rsi        # 40436d <_IO_stdin_used+0x36d>
  402127:	bf 01 00 00 00       	mov    $0x1,%edi
  40212c:	b8 00 00 00 00       	mov    $0x0,%eax
  402131:	e8 9a f2 ff ff       	call   4013d0 <__printf_chk@plt>
  402136:	5b                   	pop    %rbx
  402137:	c3                   	ret    
  402138:	48 8d 3d 10 22 00 00 	lea    0x2210(%rip),%rdi        # 40434f <_IO_stdin_used+0x34f>
  40213f:	e8 5c f1 ff ff       	call   4012a0 <puts@plt>
  402144:	b8 00 00 00 00       	mov    $0x0,%eax
  402149:	e8 05 fe ff ff       	call   401f53 <check_fail>
  40214e:	89 f9                	mov    %edi,%ecx
  402150:	48 8d 35 d1 22 00 00 	lea    0x22d1(%rip),%rsi        # 404428 <_IO_stdin_used+0x428>
  402157:	bf 01 00 00 00       	mov    $0x1,%edi
  40215c:	b8 00 00 00 00       	mov    $0x0,%eax
  402161:	e8 6a f2 ff ff       	call   4013d0 <__printf_chk@plt>
  402166:	b8 00 00 00 00       	mov    $0x0,%eax
  40216b:	e8 e3 fd ff ff       	call   401f53 <check_fail>
  402170:	39 3d 92 43 00 00    	cmp    %edi,0x4392(%rip)        # 406508 <vlevel>
  402176:	74 1a                	je     402192 <validate+0xa4>
  402178:	48 8d 3d d0 21 00 00 	lea    0x21d0(%rip),%rdi        # 40434f <_IO_stdin_used+0x34f>
  40217f:	e8 1c f1 ff ff       	call   4012a0 <puts@plt>
  402184:	89 de                	mov    %ebx,%esi
  402186:	bf 00 00 00 00       	mov    $0x0,%edi
  40218b:	e8 57 fe ff ff       	call   401fe7 <notify_server>
  402190:	eb a4                	jmp    402136 <validate+0x48>
  402192:	0f be 0d 57 43 00 00 	movsbl 0x4357(%rip),%ecx        # 4064f0 <target_prefix>
  402199:	89 fa                	mov    %edi,%edx
  40219b:	48 8d 35 ae 22 00 00 	lea    0x22ae(%rip),%rsi        # 404450 <_IO_stdin_used+0x450>
  4021a2:	bf 01 00 00 00       	mov    $0x1,%edi
  4021a7:	b8 00 00 00 00       	mov    $0x0,%eax
  4021ac:	e8 1f f2 ff ff       	call   4013d0 <__printf_chk@plt>
  4021b1:	89 de                	mov    %ebx,%esi
  4021b3:	bf 01 00 00 00       	mov    $0x1,%edi
  4021b8:	e8 2a fe ff ff       	call   401fe7 <notify_server>
  4021bd:	e9 74 ff ff ff       	jmp    402136 <validate+0x48>

00000000004021c2 <fail>:
  4021c2:	f3 0f 1e fa          	endbr64 
  4021c6:	48 83 ec 08          	sub    $0x8,%rsp
  4021ca:	83 3d 43 43 00 00 00 	cmpl   $0x0,0x4343(%rip)        # 406514 <is_checker>
  4021d1:	75 11                	jne    4021e4 <fail+0x22>
  4021d3:	89 fe                	mov    %edi,%esi
  4021d5:	bf 00 00 00 00       	mov    $0x0,%edi
  4021da:	e8 08 fe ff ff       	call   401fe7 <notify_server>
  4021df:	48 83 c4 08          	add    $0x8,%rsp
  4021e3:	c3                   	ret    
  4021e4:	b8 00 00 00 00       	mov    $0x0,%eax
  4021e9:	e8 65 fd ff ff       	call   401f53 <check_fail>

00000000004021ee <bushandler>:
  4021ee:	f3 0f 1e fa          	endbr64 
  4021f2:	50                   	push   %rax
  4021f3:	58                   	pop    %rax
  4021f4:	48 83 ec 08          	sub    $0x8,%rsp
  4021f8:	83 3d 15 43 00 00 00 	cmpl   $0x0,0x4315(%rip)        # 406514 <is_checker>
  4021ff:	74 16                	je     402217 <bushandler+0x29>
  402201:	48 8d 3d 7a 21 00 00 	lea    0x217a(%rip),%rdi        # 404382 <_IO_stdin_used+0x382>
  402208:	e8 93 f0 ff ff       	call   4012a0 <puts@plt>
  40220d:	b8 00 00 00 00       	mov    $0x0,%eax
  402212:	e8 3c fd ff ff       	call   401f53 <check_fail>
  402217:	48 8d 3d 6a 22 00 00 	lea    0x226a(%rip),%rdi        # 404488 <_IO_stdin_used+0x488>
  40221e:	e8 7d f0 ff ff       	call   4012a0 <puts@plt>
  402223:	48 8d 3d 62 21 00 00 	lea    0x2162(%rip),%rdi        # 40438c <_IO_stdin_used+0x38c>
  40222a:	e8 71 f0 ff ff       	call   4012a0 <puts@plt>
  40222f:	be 00 00 00 00       	mov    $0x0,%esi
  402234:	bf 00 00 00 00       	mov    $0x0,%edi
  402239:	e8 a9 fd ff ff       	call   401fe7 <notify_server>
  40223e:	bf 01 00 00 00       	mov    $0x1,%edi
  402243:	e8 c8 f1 ff ff       	call   401410 <exit@plt>

0000000000402248 <seghandler>:
  402248:	f3 0f 1e fa          	endbr64 
  40224c:	50                   	push   %rax
  40224d:	58                   	pop    %rax
  40224e:	48 83 ec 08          	sub    $0x8,%rsp
  402252:	83 3d bb 42 00 00 00 	cmpl   $0x0,0x42bb(%rip)        # 406514 <is_checker>
  402259:	74 16                	je     402271 <seghandler+0x29>
  40225b:	48 8d 3d 40 21 00 00 	lea    0x2140(%rip),%rdi        # 4043a2 <_IO_stdin_used+0x3a2>
  402262:	e8 39 f0 ff ff       	call   4012a0 <puts@plt>
  402267:	b8 00 00 00 00       	mov    $0x0,%eax
  40226c:	e8 e2 fc ff ff       	call   401f53 <check_fail>
  402271:	48 8d 3d 30 22 00 00 	lea    0x2230(%rip),%rdi        # 4044a8 <_IO_stdin_used+0x4a8>
  402278:	e8 23 f0 ff ff       	call   4012a0 <puts@plt>
  40227d:	48 8d 3d 08 21 00 00 	lea    0x2108(%rip),%rdi        # 40438c <_IO_stdin_used+0x38c>
  402284:	e8 17 f0 ff ff       	call   4012a0 <puts@plt>
  402289:	be 00 00 00 00       	mov    $0x0,%esi
  40228e:	bf 00 00 00 00       	mov    $0x0,%edi
  402293:	e8 4f fd ff ff       	call   401fe7 <notify_server>
  402298:	bf 01 00 00 00       	mov    $0x1,%edi
  40229d:	e8 6e f1 ff ff       	call   401410 <exit@plt>

00000000004022a2 <illegalhandler>:
  4022a2:	f3 0f 1e fa          	endbr64 
  4022a6:	50                   	push   %rax
  4022a7:	58                   	pop    %rax
  4022a8:	48 83 ec 08          	sub    $0x8,%rsp
  4022ac:	83 3d 61 42 00 00 00 	cmpl   $0x0,0x4261(%rip)        # 406514 <is_checker>
  4022b3:	74 16                	je     4022cb <illegalhandler+0x29>
  4022b5:	48 8d 3d f9 20 00 00 	lea    0x20f9(%rip),%rdi        # 4043b5 <_IO_stdin_used+0x3b5>
  4022bc:	e8 df ef ff ff       	call   4012a0 <puts@plt>
  4022c1:	b8 00 00 00 00       	mov    $0x0,%eax
  4022c6:	e8 88 fc ff ff       	call   401f53 <check_fail>
  4022cb:	48 8d 3d fe 21 00 00 	lea    0x21fe(%rip),%rdi        # 4044d0 <_IO_stdin_used+0x4d0>
  4022d2:	e8 c9 ef ff ff       	call   4012a0 <puts@plt>
  4022d7:	48 8d 3d ae 20 00 00 	lea    0x20ae(%rip),%rdi        # 40438c <_IO_stdin_used+0x38c>
  4022de:	e8 bd ef ff ff       	call   4012a0 <puts@plt>
  4022e3:	be 00 00 00 00       	mov    $0x0,%esi
  4022e8:	bf 00 00 00 00       	mov    $0x0,%edi
  4022ed:	e8 f5 fc ff ff       	call   401fe7 <notify_server>
  4022f2:	bf 01 00 00 00       	mov    $0x1,%edi
  4022f7:	e8 14 f1 ff ff       	call   401410 <exit@plt>

00000000004022fc <sigalrmhandler>:
  4022fc:	f3 0f 1e fa          	endbr64 
  402300:	50                   	push   %rax
  402301:	58                   	pop    %rax
  402302:	48 83 ec 08          	sub    $0x8,%rsp
  402306:	83 3d 07 42 00 00 00 	cmpl   $0x0,0x4207(%rip)        # 406514 <is_checker>
  40230d:	74 16                	je     402325 <sigalrmhandler+0x29>
  40230f:	48 8d 3d b3 20 00 00 	lea    0x20b3(%rip),%rdi        # 4043c9 <_IO_stdin_used+0x3c9>
  402316:	e8 85 ef ff ff       	call   4012a0 <puts@plt>
  40231b:	b8 00 00 00 00       	mov    $0x0,%eax
  402320:	e8 2e fc ff ff       	call   401f53 <check_fail>
  402325:	ba 05 00 00 00       	mov    $0x5,%edx
  40232a:	48 8d 35 cf 21 00 00 	lea    0x21cf(%rip),%rsi        # 404500 <_IO_stdin_used+0x500>
  402331:	bf 01 00 00 00       	mov    $0x1,%edi
  402336:	b8 00 00 00 00       	mov    $0x0,%eax
  40233b:	e8 90 f0 ff ff       	call   4013d0 <__printf_chk@plt>
  402340:	be 00 00 00 00       	mov    $0x0,%esi
  402345:	bf 00 00 00 00       	mov    $0x0,%edi
  40234a:	e8 98 fc ff ff       	call   401fe7 <notify_server>
  40234f:	bf 01 00 00 00       	mov    $0x1,%edi
  402354:	e8 b7 f0 ff ff       	call   401410 <exit@plt>

0000000000402359 <launch>:
  402359:	f3 0f 1e fa          	endbr64 
  40235d:	55                   	push   %rbp
  40235e:	48 89 e5             	mov    %rsp,%rbp
  402361:	48 83 ec 10          	sub    $0x10,%rsp
  402365:	48 89 fa             	mov    %rdi,%rdx
  402368:	64 48 8b 04 25 28 00 	mov    %fs:0x28,%rax
  40236f:	00 00 
  402371:	48 89 45 f8          	mov    %rax,-0x8(%rbp)
  402375:	31 c0                	xor    %eax,%eax
  402377:	48 8d 47 17          	lea    0x17(%rdi),%rax
  40237b:	48 89 c6             	mov    %rax,%rsi
  40237e:	48 83 e6 f0          	and    $0xfffffffffffffff0,%rsi
  402382:	48 25 00 f0 ff ff    	and    $0xfffffffffffff000,%rax
  402388:	48 89 e1             	mov    %rsp,%rcx
  40238b:	48 29 c1             	sub    %rax,%rcx
  40238e:	48 39 cc             	cmp    %rcx,%rsp
  402391:	74 12                	je     4023a5 <launch+0x4c>
  402393:	48 81 ec 00 10 00 00 	sub    $0x1000,%rsp
  40239a:	48 83 8c 24 f8 0f 00 	orq    $0x0,0xff8(%rsp)
  4023a1:	00 00 
  4023a3:	eb e9                	jmp    40238e <launch+0x35>
  4023a5:	48 89 f0             	mov    %rsi,%rax
  4023a8:	25 ff 0f 00 00       	and    $0xfff,%eax
  4023ad:	48 29 c4             	sub    %rax,%rsp
  4023b0:	48 85 c0             	test   %rax,%rax
  4023b3:	74 06                	je     4023bb <launch+0x62>
  4023b5:	48 83 4c 04 f8 00    	orq    $0x0,-0x8(%rsp,%rax,1)
  4023bb:	48 8d 7c 24 0f       	lea    0xf(%rsp),%rdi
  4023c0:	48 83 e7 f0          	and    $0xfffffffffffffff0,%rdi
  4023c4:	be f4 00 00 00       	mov    $0xf4,%esi
  4023c9:	e8 22 ef ff ff       	call   4012f0 <memset@plt>
  4023ce:	48 8b 05 9b 3d 00 00 	mov    0x3d9b(%rip),%rax        # 406170 <stdin@GLIBC_2.2.5>
  4023d5:	48 39 05 1c 41 00 00 	cmp    %rax,0x411c(%rip)        # 4064f8 <infile>
  4023dc:	74 3a                	je     402418 <launch+0xbf>
  4023de:	c7 05 20 41 00 00 00 	movl   $0x0,0x4120(%rip)        # 406508 <vlevel>
  4023e5:	00 00 00 
  4023e8:	b8 00 00 00 00       	mov    $0x0,%eax
  4023ed:	e8 c3 fa ff ff       	call   401eb5 <test>
  4023f2:	83 3d 1b 41 00 00 00 	cmpl   $0x0,0x411b(%rip)        # 406514 <is_checker>
  4023f9:	75 35                	jne    402430 <launch+0xd7>
  4023fb:	48 8d 3d e7 1f 00 00 	lea    0x1fe7(%rip),%rdi        # 4043e9 <_IO_stdin_used+0x3e9>
  402402:	e8 99 ee ff ff       	call   4012a0 <puts@plt>
  402407:	48 8b 45 f8          	mov    -0x8(%rbp),%rax
  40240b:	64 48 2b 04 25 28 00 	sub    %fs:0x28,%rax
  402412:	00 00 
  402414:	75 30                	jne    402446 <launch+0xed>
  402416:	c9                   	leave  
  402417:	c3                   	ret    
  402418:	48 8d 35 b2 1f 00 00 	lea    0x1fb2(%rip),%rsi        # 4043d1 <_IO_stdin_used+0x3d1>
  40241f:	bf 01 00 00 00       	mov    $0x1,%edi
  402424:	b8 00 00 00 00       	mov    $0x0,%eax
  402429:	e8 a2 ef ff ff       	call   4013d0 <__printf_chk@plt>
  40242e:	eb ae                	jmp    4023de <launch+0x85>
  402430:	48 8d 3d a7 1f 00 00 	lea    0x1fa7(%rip),%rdi        # 4043de <_IO_stdin_used+0x3de>
  402437:	e8 64 ee ff ff       	call   4012a0 <puts@plt>
  40243c:	b8 00 00 00 00       	mov    $0x0,%eax
  402441:	e8 0d fb ff ff       	call   401f53 <check_fail>
  402446:	e8 85 ee ff ff       	call   4012d0 <__stack_chk_fail@plt>

000000000040244b <stable_launch>:
  40244b:	f3 0f 1e fa          	endbr64 
  40244f:	53                   	push   %rbx
  402450:	48 89 3d 91 40 00 00 	mov    %rdi,0x4091(%rip)        # 4064e8 <global_offset>
  402457:	41 b9 00 00 00 00    	mov    $0x0,%r9d
  40245d:	41 b8 00 00 00 00    	mov    $0x0,%r8d
  402463:	b9 22 01 10 00       	mov    $0x100122,%ecx
  402468:	ba 07 00 00 00       	mov    $0x7,%edx
  40246d:	be 00 00 10 00       	mov    $0x100000,%esi
  402472:	bf 00 60 58 55       	mov    $0x55586000,%edi
  402477:	e8 64 ee ff ff       	call   4012e0 <mmap@plt>
  40247c:	48 89 c3             	mov    %rax,%rbx
  40247f:	48 3d 00 60 58 55    	cmp    $0x55586000,%rax
  402485:	75 35                	jne    4024bc <stable_launch+0x71>
  402487:	48 89 e0             	mov    %rsp,%rax
  40248a:	48 89 dc             	mov    %rbx,%rsp
  40248d:	48 89 c2             	mov    %rax,%rdx
  402490:	48 89 15 49 40 00 00 	mov    %rdx,0x4049(%rip)        # 4064e0 <global_save_stack>
  402497:	48 8b 3d 4a 40 00 00 	mov    0x404a(%rip),%rdi        # 4064e8 <global_offset>
  40249e:	e8 b6 fe ff ff       	call   402359 <launch>
  4024a3:	48 8b 05 36 40 00 00 	mov    0x4036(%rip),%rax        # 4064e0 <global_save_stack>
  4024aa:	48 89 c4             	mov    %rax,%rsp
  4024ad:	be 00 00 10 00       	mov    $0x100000,%esi
  4024b2:	48 89 df             	mov    %rbx,%rdi
  4024b5:	e8 06 ef ff ff       	call   4013c0 <munmap@plt>
  4024ba:	5b                   	pop    %rbx
  4024bb:	c3                   	ret    
  4024bc:	be 00 00 10 00       	mov    $0x100000,%esi
  4024c1:	48 89 c7             	mov    %rax,%rdi
  4024c4:	e8 f7 ee ff ff       	call   4013c0 <munmap@plt>
  4024c9:	b9 00 60 58 55       	mov    $0x55586000,%ecx
  4024ce:	48 8d 15 63 20 00 00 	lea    0x2063(%rip),%rdx        # 404538 <_IO_stdin_used+0x538>
  4024d5:	be 01 00 00 00       	mov    $0x1,%esi
  4024da:	48 8b 3d bf 3c 00 00 	mov    0x3cbf(%rip),%rdi        # 4061a0 <stderr@GLIBC_2.2.5>
  4024e1:	b8 00 00 00 00       	mov    $0x0,%eax
  4024e6:	e8 45 ef ff ff       	call   401430 <__fprintf_chk@plt>
  4024eb:	bf 01 00 00 00       	mov    $0x1,%edi
  4024f0:	e8 1b ef ff ff       	call   401410 <exit@plt>

00000000004024f5 <rio_readinitb>:
  4024f5:	89 37                	mov    %esi,(%rdi)
  4024f7:	c7 47 04 00 00 00 00 	movl   $0x0,0x4(%rdi)
  4024fe:	48 8d 47 10          	lea    0x10(%rdi),%rax
  402502:	48 89 47 08          	mov    %rax,0x8(%rdi)
  402506:	c3                   	ret    

0000000000402507 <sigalrm_handler>:
  402507:	f3 0f 1e fa          	endbr64 
  40250b:	50                   	push   %rax
  40250c:	58                   	pop    %rax
  40250d:	48 83 ec 08          	sub    $0x8,%rsp
  402511:	b9 00 00 00 00       	mov    $0x0,%ecx
  402516:	48 8d 15 53 20 00 00 	lea    0x2053(%rip),%rdx        # 404570 <trans_char+0x10>
  40251d:	be 01 00 00 00       	mov    $0x1,%esi
  402522:	48 8b 3d 77 3c 00 00 	mov    0x3c77(%rip),%rdi        # 4061a0 <stderr@GLIBC_2.2.5>
  402529:	b8 00 00 00 00       	mov    $0x0,%eax
  40252e:	e8 fd ee ff ff       	call   401430 <__fprintf_chk@plt>
  402533:	bf 01 00 00 00       	mov    $0x1,%edi
  402538:	e8 d3 ee ff ff       	call   401410 <exit@plt>

000000000040253d <rio_writen>:
  40253d:	41 55                	push   %r13
  40253f:	41 54                	push   %r12
  402541:	55                   	push   %rbp
  402542:	53                   	push   %rbx
  402543:	48 83 ec 08          	sub    $0x8,%rsp
  402547:	41 89 fc             	mov    %edi,%r12d
  40254a:	48 89 f5             	mov    %rsi,%rbp
  40254d:	49 89 d5             	mov    %rdx,%r13
  402550:	48 89 d3             	mov    %rdx,%rbx
  402553:	eb 06                	jmp    40255b <rio_writen+0x1e>
  402555:	48 29 c3             	sub    %rax,%rbx
  402558:	48 01 c5             	add    %rax,%rbp
  40255b:	48 85 db             	test   %rbx,%rbx
  40255e:	74 24                	je     402584 <rio_writen+0x47>
  402560:	48 89 da             	mov    %rbx,%rdx
  402563:	48 89 ee             	mov    %rbp,%rsi
  402566:	44 89 e7             	mov    %r12d,%edi
  402569:	e8 42 ed ff ff       	call   4012b0 <write@plt>
  40256e:	48 85 c0             	test   %rax,%rax
  402571:	7f e2                	jg     402555 <rio_writen+0x18>
  402573:	e8 d8 ec ff ff       	call   401250 <__errno_location@plt>
  402578:	83 38 04             	cmpl   $0x4,(%rax)
  40257b:	75 15                	jne    402592 <rio_writen+0x55>
  40257d:	b8 00 00 00 00       	mov    $0x0,%eax
  402582:	eb d1                	jmp    402555 <rio_writen+0x18>
  402584:	4c 89 e8             	mov    %r13,%rax
  402587:	48 83 c4 08          	add    $0x8,%rsp
  40258b:	5b                   	pop    %rbx
  40258c:	5d                   	pop    %rbp
  40258d:	41 5c                	pop    %r12
  40258f:	41 5d                	pop    %r13
  402591:	c3                   	ret    
  402592:	48 c7 c0 ff ff ff ff 	mov    $0xffffffffffffffff,%rax
  402599:	eb ec                	jmp    402587 <rio_writen+0x4a>

000000000040259b <rio_read>:
  40259b:	41 55                	push   %r13
  40259d:	41 54                	push   %r12
  40259f:	55                   	push   %rbp
  4025a0:	53                   	push   %rbx
  4025a1:	48 83 ec 08          	sub    $0x8,%rsp
  4025a5:	48 89 fb             	mov    %rdi,%rbx
  4025a8:	49 89 f5             	mov    %rsi,%r13
  4025ab:	49 89 d4             	mov    %rdx,%r12
  4025ae:	eb 0a                	jmp    4025ba <rio_read+0x1f>
  4025b0:	e8 9b ec ff ff       	call   401250 <__errno_location@plt>
  4025b5:	83 38 04             	cmpl   $0x4,(%rax)
  4025b8:	75 61                	jne    40261b <rio_read+0x80>
  4025ba:	8b 6b 04             	mov    0x4(%rbx),%ebp
  4025bd:	85 ed                	test   %ebp,%ebp
  4025bf:	7f 29                	jg     4025ea <rio_read+0x4f>
  4025c1:	48 8d 6b 10          	lea    0x10(%rbx),%rbp
  4025c5:	8b 3b                	mov    (%rbx),%edi
  4025c7:	48 c7 c1 ff ff ff ff 	mov    $0xffffffffffffffff,%rcx
  4025ce:	ba 00 20 00 00       	mov    $0x2000,%edx
  4025d3:	48 89 ee             	mov    %rbp,%rsi
  4025d6:	e8 b5 ec ff ff       	call   401290 <__read_chk@plt>
  4025db:	89 43 04             	mov    %eax,0x4(%rbx)
  4025de:	85 c0                	test   %eax,%eax
  4025e0:	78 ce                	js     4025b0 <rio_read+0x15>
  4025e2:	74 40                	je     402624 <rio_read+0x89>
  4025e4:	48 89 6b 08          	mov    %rbp,0x8(%rbx)
  4025e8:	eb d0                	jmp    4025ba <rio_read+0x1f>
  4025ea:	89 e8                	mov    %ebp,%eax
  4025ec:	4c 39 e0             	cmp    %r12,%rax
  4025ef:	72 03                	jb     4025f4 <rio_read+0x59>
  4025f1:	44 89 e5             	mov    %r12d,%ebp
  4025f4:	4c 63 e5             	movslq %ebp,%r12
  4025f7:	48 8b 73 08          	mov    0x8(%rbx),%rsi
  4025fb:	4c 89 e2             	mov    %r12,%rdx
  4025fe:	4c 89 ef             	mov    %r13,%rdi
  402601:	e8 6a ed ff ff       	call   401370 <memcpy@plt>
  402606:	4c 01 63 08          	add    %r12,0x8(%rbx)
  40260a:	29 6b 04             	sub    %ebp,0x4(%rbx)
  40260d:	4c 89 e0             	mov    %r12,%rax
  402610:	48 83 c4 08          	add    $0x8,%rsp
  402614:	5b                   	pop    %rbx
  402615:	5d                   	pop    %rbp
  402616:	41 5c                	pop    %r12
  402618:	41 5d                	pop    %r13
  40261a:	c3                   	ret    
  40261b:	48 c7 c0 ff ff ff ff 	mov    $0xffffffffffffffff,%rax
  402622:	eb ec                	jmp    402610 <rio_read+0x75>
  402624:	b8 00 00 00 00       	mov    $0x0,%eax
  402629:	eb e5                	jmp    402610 <rio_read+0x75>

000000000040262b <rio_readlineb>:
  40262b:	41 55                	push   %r13
  40262d:	41 54                	push   %r12
  40262f:	55                   	push   %rbp
  402630:	53                   	push   %rbx
  402631:	48 83 ec 18          	sub    $0x18,%rsp
  402635:	49 89 fd             	mov    %rdi,%r13
  402638:	48 89 f5             	mov    %rsi,%rbp
  40263b:	49 89 d4             	mov    %rdx,%r12
  40263e:	64 48 8b 04 25 28 00 	mov    %fs:0x28,%rax
  402645:	00 00 
  402647:	48 89 44 24 08       	mov    %rax,0x8(%rsp)
  40264c:	31 c0                	xor    %eax,%eax
  40264e:	bb 01 00 00 00       	mov    $0x1,%ebx
  402653:	eb 18                	jmp    40266d <rio_readlineb+0x42>
  402655:	85 c0                	test   %eax,%eax
  402657:	75 65                	jne    4026be <rio_readlineb+0x93>
  402659:	48 83 fb 01          	cmp    $0x1,%rbx
  40265d:	75 3d                	jne    40269c <rio_readlineb+0x71>
  40265f:	b8 00 00 00 00       	mov    $0x0,%eax
  402664:	eb 3d                	jmp    4026a3 <rio_readlineb+0x78>
  402666:	48 83 c3 01          	add    $0x1,%rbx
  40266a:	48 89 d5             	mov    %rdx,%rbp
  40266d:	4c 39 e3             	cmp    %r12,%rbx
  402670:	73 2a                	jae    40269c <rio_readlineb+0x71>
  402672:	48 8d 74 24 07       	lea    0x7(%rsp),%rsi
  402677:	ba 01 00 00 00       	mov    $0x1,%edx
  40267c:	4c 89 ef             	mov    %r13,%rdi
  40267f:	e8 17 ff ff ff       	call   40259b <rio_read>
  402684:	83 f8 01             	cmp    $0x1,%eax
  402687:	75 cc                	jne    402655 <rio_readlineb+0x2a>
  402689:	48 8d 55 01          	lea    0x1(%rbp),%rdx
  40268d:	0f b6 44 24 07       	movzbl 0x7(%rsp),%eax
  402692:	88 45 00             	mov    %al,0x0(%rbp)
  402695:	3c 0a                	cmp    $0xa,%al
  402697:	75 cd                	jne    402666 <rio_readlineb+0x3b>
  402699:	48 89 d5             	mov    %rdx,%rbp
  40269c:	c6 45 00 00          	movb   $0x0,0x0(%rbp)
  4026a0:	48 89 d8             	mov    %rbx,%rax
  4026a3:	48 8b 54 24 08       	mov    0x8(%rsp),%rdx
  4026a8:	64 48 2b 14 25 28 00 	sub    %fs:0x28,%rdx
  4026af:	00 00 
  4026b1:	75 14                	jne    4026c7 <rio_readlineb+0x9c>
  4026b3:	48 83 c4 18          	add    $0x18,%rsp
  4026b7:	5b                   	pop    %rbx
  4026b8:	5d                   	pop    %rbp
  4026b9:	41 5c                	pop    %r12
  4026bb:	41 5d                	pop    %r13
  4026bd:	c3                   	ret    
  4026be:	48 c7 c0 ff ff ff ff 	mov    $0xffffffffffffffff,%rax
  4026c5:	eb dc                	jmp    4026a3 <rio_readlineb+0x78>
  4026c7:	e8 04 ec ff ff       	call   4012d0 <__stack_chk_fail@plt>

00000000004026cc <urlencode>:
  4026cc:	41 54                	push   %r12
  4026ce:	55                   	push   %rbp
  4026cf:	53                   	push   %rbx
  4026d0:	48 83 ec 10          	sub    $0x10,%rsp
  4026d4:	48 89 fb             	mov    %rdi,%rbx
  4026d7:	48 89 f5             	mov    %rsi,%rbp
  4026da:	64 48 8b 04 25 28 00 	mov    %fs:0x28,%rax
  4026e1:	00 00 
  4026e3:	48 89 44 24 08       	mov    %rax,0x8(%rsp)
  4026e8:	31 c0                	xor    %eax,%eax
  4026ea:	e8 d1 eb ff ff       	call   4012c0 <strlen@plt>
  4026ef:	eb 0f                	jmp    402700 <urlencode+0x34>
  4026f1:	44 88 45 00          	mov    %r8b,0x0(%rbp)
  4026f5:	48 8d 6d 01          	lea    0x1(%rbp),%rbp
  4026f9:	48 83 c3 01          	add    $0x1,%rbx
  4026fd:	44 89 e0             	mov    %r12d,%eax
  402700:	44 8d 60 ff          	lea    -0x1(%rax),%r12d
  402704:	85 c0                	test   %eax,%eax
  402706:	0f 84 a8 00 00 00    	je     4027b4 <urlencode+0xe8>
  40270c:	44 0f b6 03          	movzbl (%rbx),%r8d
  402710:	41 80 f8 2a          	cmp    $0x2a,%r8b
  402714:	0f 94 c0             	sete   %al
  402717:	41 80 f8 2d          	cmp    $0x2d,%r8b
  40271b:	0f 94 c2             	sete   %dl
  40271e:	08 d0                	or     %dl,%al
  402720:	75 cf                	jne    4026f1 <urlencode+0x25>
  402722:	41 80 f8 2e          	cmp    $0x2e,%r8b
  402726:	74 c9                	je     4026f1 <urlencode+0x25>
  402728:	41 80 f8 5f          	cmp    $0x5f,%r8b
  40272c:	74 c3                	je     4026f1 <urlencode+0x25>
  40272e:	41 8d 40 d0          	lea    -0x30(%r8),%eax
  402732:	3c 09                	cmp    $0x9,%al
  402734:	76 bb                	jbe    4026f1 <urlencode+0x25>
  402736:	41 8d 40 bf          	lea    -0x41(%r8),%eax
  40273a:	3c 19                	cmp    $0x19,%al
  40273c:	76 b3                	jbe    4026f1 <urlencode+0x25>
  40273e:	41 8d 40 9f          	lea    -0x61(%r8),%eax
  402742:	3c 19                	cmp    $0x19,%al
  402744:	76 ab                	jbe    4026f1 <urlencode+0x25>
  402746:	41 80 f8 20          	cmp    $0x20,%r8b
  40274a:	74 56                	je     4027a2 <urlencode+0xd6>
  40274c:	41 8d 40 e0          	lea    -0x20(%r8),%eax
  402750:	3c 5f                	cmp    $0x5f,%al
  402752:	0f 96 c0             	setbe  %al
  402755:	41 80 f8 09          	cmp    $0x9,%r8b
  402759:	0f 94 c2             	sete   %dl
  40275c:	08 d0                	or     %dl,%al
  40275e:	74 4f                	je     4027af <urlencode+0xe3>
  402760:	48 89 e7             	mov    %rsp,%rdi
  402763:	45 0f b6 c0          	movzbl %r8b,%r8d
  402767:	48 8d 0d 97 1e 00 00 	lea    0x1e97(%rip),%rcx        # 404605 <trans_char+0xa5>
  40276e:	ba 08 00 00 00       	mov    $0x8,%edx
  402773:	be 01 00 00 00       	mov    $0x1,%esi
  402778:	b8 00 00 00 00       	mov    $0x0,%eax
  40277d:	e8 ce ec ff ff       	call   401450 <__sprintf_chk@plt>
  402782:	0f b6 04 24          	movzbl (%rsp),%eax
  402786:	88 45 00             	mov    %al,0x0(%rbp)
  402789:	0f b6 44 24 01       	movzbl 0x1(%rsp),%eax
  40278e:	88 45 01             	mov    %al,0x1(%rbp)
  402791:	0f b6 44 24 02       	movzbl 0x2(%rsp),%eax
  402796:	88 45 02             	mov    %al,0x2(%rbp)
  402799:	48 8d 6d 03          	lea    0x3(%rbp),%rbp
  40279d:	e9 57 ff ff ff       	jmp    4026f9 <urlencode+0x2d>
  4027a2:	c6 45 00 2b          	movb   $0x2b,0x0(%rbp)
  4027a6:	48 8d 6d 01          	lea    0x1(%rbp),%rbp
  4027aa:	e9 4a ff ff ff       	jmp    4026f9 <urlencode+0x2d>
  4027af:	b8 ff ff ff ff       	mov    $0xffffffff,%eax
  4027b4:	48 8b 54 24 08       	mov    0x8(%rsp),%rdx
  4027b9:	64 48 2b 14 25 28 00 	sub    %fs:0x28,%rdx
  4027c0:	00 00 
  4027c2:	75 09                	jne    4027cd <urlencode+0x101>
  4027c4:	48 83 c4 10          	add    $0x10,%rsp
  4027c8:	5b                   	pop    %rbx
  4027c9:	5d                   	pop    %rbp
  4027ca:	41 5c                	pop    %r12
  4027cc:	c3                   	ret    
  4027cd:	e8 fe ea ff ff       	call   4012d0 <__stack_chk_fail@plt>

00000000004027d2 <submitr>:
  4027d2:	f3 0f 1e fa          	endbr64 
  4027d6:	41 57                	push   %r15
  4027d8:	41 56                	push   %r14
  4027da:	41 55                	push   %r13
  4027dc:	41 54                	push   %r12
  4027de:	55                   	push   %rbp
  4027df:	53                   	push   %rbx
  4027e0:	4c 8d 9c 24 00 60 ff 	lea    -0xa000(%rsp),%r11
  4027e7:	ff 
  4027e8:	48 81 ec 00 10 00 00 	sub    $0x1000,%rsp
  4027ef:	48 83 0c 24 00       	orq    $0x0,(%rsp)
  4027f4:	4c 39 dc             	cmp    %r11,%rsp
  4027f7:	75 ef                	jne    4027e8 <submitr+0x16>
  4027f9:	48 83 ec 68          	sub    $0x68,%rsp
  4027fd:	49 89 fc             	mov    %rdi,%r12
  402800:	89 74 24 10          	mov    %esi,0x10(%rsp)
  402804:	49 89 d6             	mov    %rdx,%r14
  402807:	48 89 4c 24 08       	mov    %rcx,0x8(%rsp)
  40280c:	4c 89 44 24 18       	mov    %r8,0x18(%rsp)
  402811:	4d 89 cd             	mov    %r9,%r13
  402814:	48 8b ac 24 a0 a0 00 	mov    0xa0a0(%rsp),%rbp
  40281b:	00 
  40281c:	64 48 8b 04 25 28 00 	mov    %fs:0x28,%rax
  402823:	00 00 
  402825:	48 89 84 24 58 a0 00 	mov    %rax,0xa058(%rsp)
  40282c:	00 
  40282d:	31 c0                	xor    %eax,%eax
  40282f:	c7 44 24 2c 00 00 00 	movl   $0x0,0x2c(%rsp)
  402836:	00 
  402837:	ba 00 00 00 00       	mov    $0x0,%edx
  40283c:	be 01 00 00 00       	mov    $0x1,%esi
  402841:	bf 02 00 00 00       	mov    $0x2,%edi
  402846:	e8 15 ec ff ff       	call   401460 <socket@plt>
  40284b:	85 c0                	test   %eax,%eax
  40284d:	0f 88 77 02 00 00    	js     402aca <submitr+0x2f8>
  402853:	89 c3                	mov    %eax,%ebx
  402855:	4c 89 e7             	mov    %r12,%rdi
  402858:	e8 e3 ea ff ff       	call   401340 <gethostbyname@plt>
  40285d:	48 85 c0             	test   %rax,%rax
  402860:	0f 84 b0 02 00 00    	je     402b16 <submitr+0x344>
  402866:	4c 8d 7c 24 30       	lea    0x30(%rsp),%r15
  40286b:	48 c7 44 24 30 00 00 	movq   $0x0,0x30(%rsp)
  402872:	00 00 
  402874:	48 c7 44 24 38 00 00 	movq   $0x0,0x38(%rsp)
  40287b:	00 00 
  40287d:	66 c7 44 24 30 02 00 	movw   $0x2,0x30(%rsp)
  402884:	48 63 50 14          	movslq 0x14(%rax),%rdx
  402888:	48 8b 40 18          	mov    0x18(%rax),%rax
  40288c:	48 8b 30             	mov    (%rax),%rsi
  40288f:	48 8d 7c 24 34       	lea    0x34(%rsp),%rdi
  402894:	b9 0c 00 00 00       	mov    $0xc,%ecx
  402899:	e8 b2 ea ff ff       	call   401350 <__memmove_chk@plt>
  40289e:	0f b7 44 24 10       	movzwl 0x10(%rsp),%eax
  4028a3:	66 c1 c0 08          	rol    $0x8,%ax
  4028a7:	66 89 44 24 32       	mov    %ax,0x32(%rsp)
  4028ac:	ba 10 00 00 00       	mov    $0x10,%edx
  4028b1:	4c 89 fe             	mov    %r15,%rsi
  4028b4:	89 df                	mov    %ebx,%edi
  4028b6:	e8 65 eb ff ff       	call   401420 <connect@plt>
  4028bb:	85 c0                	test   %eax,%eax
  4028bd:	0f 88 bb 02 00 00    	js     402b7e <submitr+0x3ac>
  4028c3:	4c 89 ef             	mov    %r13,%rdi
  4028c6:	e8 f5 e9 ff ff       	call   4012c0 <strlen@plt>
  4028cb:	49 89 c7             	mov    %rax,%r15
  4028ce:	4c 89 f7             	mov    %r14,%rdi
  4028d1:	e8 ea e9 ff ff       	call   4012c0 <strlen@plt>
  4028d6:	48 89 44 24 10       	mov    %rax,0x10(%rsp)
  4028db:	48 8b 7c 24 08       	mov    0x8(%rsp),%rdi
  4028e0:	e8 db e9 ff ff       	call   4012c0 <strlen@plt>
  4028e5:	48 03 44 24 10       	add    0x10(%rsp),%rax
  4028ea:	48 89 44 24 10       	mov    %rax,0x10(%rsp)
  4028ef:	48 8b 7c 24 18       	mov    0x18(%rsp),%rdi
  4028f4:	e8 c7 e9 ff ff       	call   4012c0 <strlen@plt>
  4028f9:	48 03 44 24 10       	add    0x10(%rsp),%rax
  4028fe:	4b 8d 14 7f          	lea    (%r15,%r15,2),%rdx
  402902:	48 8d 84 10 80 00 00 	lea    0x80(%rax,%rdx,1),%rax
  402909:	00 
  40290a:	48 3d 00 20 00 00    	cmp    $0x2000,%rax
  402910:	0f 87 c2 02 00 00    	ja     402bd8 <submitr+0x406>
  402916:	48 8d b4 24 50 40 00 	lea    0x4050(%rsp),%rsi
  40291d:	00 
  40291e:	b9 00 04 00 00       	mov    $0x400,%ecx
  402923:	b8 00 00 00 00       	mov    $0x0,%eax
  402928:	48 89 f7             	mov    %rsi,%rdi
  40292b:	f3 48 ab             	rep stos %rax,%es:(%rdi)
  40292e:	4c 89 ef             	mov    %r13,%rdi
  402931:	e8 96 fd ff ff       	call   4026cc <urlencode>
  402936:	85 c0                	test   %eax,%eax
  402938:	0f 88 0d 03 00 00    	js     402c4b <submitr+0x479>
  40293e:	4c 8d bc 24 50 20 00 	lea    0x2050(%rsp),%r15
  402945:	00 
  402946:	41 54                	push   %r12
  402948:	48 8d 84 24 58 40 00 	lea    0x4058(%rsp),%rax
  40294f:	00 
  402950:	50                   	push   %rax
  402951:	4d 89 f1             	mov    %r14,%r9
  402954:	4c 8b 44 24 18       	mov    0x18(%rsp),%r8
  402959:	48 8d 0d 38 1c 00 00 	lea    0x1c38(%rip),%rcx        # 404598 <trans_char+0x38>
  402960:	ba 00 20 00 00       	mov    $0x2000,%edx
  402965:	be 01 00 00 00       	mov    $0x1,%esi
  40296a:	4c 89 ff             	mov    %r15,%rdi
  40296d:	b8 00 00 00 00       	mov    $0x0,%eax
  402972:	e8 d9 ea ff ff       	call   401450 <__sprintf_chk@plt>
  402977:	4c 89 ff             	mov    %r15,%rdi
  40297a:	e8 41 e9 ff ff       	call   4012c0 <strlen@plt>
  40297f:	48 89 c2             	mov    %rax,%rdx
  402982:	4c 89 fe             	mov    %r15,%rsi
  402985:	89 df                	mov    %ebx,%edi
  402987:	e8 b1 fb ff ff       	call   40253d <rio_writen>
  40298c:	48 83 c4 10          	add    $0x10,%rsp
  402990:	48 85 c0             	test   %rax,%rax
  402993:	0f 88 3d 03 00 00    	js     402cd6 <submitr+0x504>
  402999:	4c 8d 64 24 40       	lea    0x40(%rsp),%r12
  40299e:	89 de                	mov    %ebx,%esi
  4029a0:	4c 89 e7             	mov    %r12,%rdi
  4029a3:	e8 4d fb ff ff       	call   4024f5 <rio_readinitb>
  4029a8:	48 8d b4 24 50 20 00 	lea    0x2050(%rsp),%rsi
  4029af:	00 
  4029b0:	ba 00 20 00 00       	mov    $0x2000,%edx
  4029b5:	4c 89 e7             	mov    %r12,%rdi
  4029b8:	e8 6e fc ff ff       	call   40262b <rio_readlineb>
  4029bd:	48 85 c0             	test   %rax,%rax
  4029c0:	0f 8e 7f 03 00 00    	jle    402d45 <submitr+0x573>
  4029c6:	48 8d 4c 24 2c       	lea    0x2c(%rsp),%rcx
  4029cb:	48 8d 94 24 50 60 00 	lea    0x6050(%rsp),%rdx
  4029d2:	00 
  4029d3:	48 8d bc 24 50 20 00 	lea    0x2050(%rsp),%rdi
  4029da:	00 
  4029db:	4c 8d 84 24 50 80 00 	lea    0x8050(%rsp),%r8
  4029e2:	00 
  4029e3:	48 8d 35 22 1c 00 00 	lea    0x1c22(%rip),%rsi        # 40460c <trans_char+0xac>
  4029ea:	b8 00 00 00 00       	mov    $0x0,%eax
  4029ef:	e8 bc e9 ff ff       	call   4013b0 <__isoc99_sscanf@plt>
  4029f4:	48 8d bc 24 50 20 00 	lea    0x2050(%rsp),%rdi
  4029fb:	00 
  4029fc:	48 8d 35 20 1c 00 00 	lea    0x1c20(%rip),%rsi        # 404623 <trans_char+0xc3>
  402a03:	e8 18 e9 ff ff       	call   401320 <strcmp@plt>
  402a08:	85 c0                	test   %eax,%eax
  402a0a:	0f 84 b3 03 00 00    	je     402dc3 <submitr+0x5f1>
  402a10:	48 8d b4 24 50 20 00 	lea    0x2050(%rsp),%rsi
  402a17:	00 
  402a18:	48 8d 7c 24 40       	lea    0x40(%rsp),%rdi
  402a1d:	ba 00 20 00 00       	mov    $0x2000,%edx
  402a22:	e8 04 fc ff ff       	call   40262b <rio_readlineb>
  402a27:	48 85 c0             	test   %rax,%rax
  402a2a:	7f c8                	jg     4029f4 <submitr+0x222>
  402a2c:	48 b8 45 72 72 6f 72 	movabs $0x43203a726f727245,%rax
  402a33:	3a 20 43 
  402a36:	48 ba 6c 69 65 6e 74 	movabs $0x6e7520746e65696c,%rdx
  402a3d:	20 75 6e 
  402a40:	48 89 45 00          	mov    %rax,0x0(%rbp)
  402a44:	48 89 55 08          	mov    %rdx,0x8(%rbp)
  402a48:	48 b8 61 62 6c 65 20 	movabs $0x206f7420656c6261,%rax
  402a4f:	74 6f 20 
  402a52:	48 ba 72 65 61 64 20 	movabs $0x6165682064616572,%rdx
  402a59:	68 65 61 
  402a5c:	48 89 45 10          	mov    %rax,0x10(%rbp)
  402a60:	48 89 55 18          	mov    %rdx,0x18(%rbp)
  402a64:	48 b8 64 65 72 73 20 	movabs $0x6f72662073726564,%rax
  402a6b:	66 72 6f 
  402a6e:	48 ba 6d 20 74 68 65 	movabs $0x657220656874206d,%rdx
  402a75:	20 72 65 
  402a78:	48 89 45 20          	mov    %rax,0x20(%rbp)
  402a7c:	48 89 55 28          	mov    %rdx,0x28(%rbp)
  402a80:	48 b8 73 75 6c 74 20 	movabs $0x72657320746c7573,%rax
  402a87:	73 65 72 
  402a8a:	48 89 45 30          	mov    %rax,0x30(%rbp)
  402a8e:	c7 45 38 76 65 72 00 	movl   $0x726576,0x38(%rbp)
  402a95:	89 df                	mov    %ebx,%edi
  402a97:	e8 74 e8 ff ff       	call   401310 <close@plt>
  402a9c:	b8 ff ff ff ff       	mov    $0xffffffff,%eax
  402aa1:	48 8b 94 24 58 a0 00 	mov    0xa058(%rsp),%rdx
  402aa8:	00 
  402aa9:	64 48 2b 14 25 28 00 	sub    %fs:0x28,%rdx
  402ab0:	00 00 
  402ab2:	0f 85 5c 04 00 00    	jne    402f14 <submitr+0x742>
  402ab8:	48 81 c4 68 a0 00 00 	add    $0xa068,%rsp
  402abf:	5b                   	pop    %rbx
  402ac0:	5d                   	pop    %rbp
  402ac1:	41 5c                	pop    %r12
  402ac3:	41 5d                	pop    %r13
  402ac5:	41 5e                	pop    %r14
  402ac7:	41 5f                	pop    %r15
  402ac9:	c3                   	ret    
  402aca:	48 b8 45 72 72 6f 72 	movabs $0x43203a726f727245,%rax
  402ad1:	3a 20 43 
  402ad4:	48 ba 6c 69 65 6e 74 	movabs $0x6e7520746e65696c,%rdx
  402adb:	20 75 6e 
  402ade:	48 89 45 00          	mov    %rax,0x0(%rbp)
  402ae2:	48 89 55 08          	mov    %rdx,0x8(%rbp)
  402ae6:	48 b8 61 62 6c 65 20 	movabs $0x206f7420656c6261,%rax
  402aed:	74 6f 20 
  402af0:	48 ba 63 72 65 61 74 	movabs $0x7320657461657263,%rdx
  402af7:	65 20 73 
  402afa:	48 89 45 10          	mov    %rax,0x10(%rbp)
  402afe:	48 89 55 18          	mov    %rdx,0x18(%rbp)
  402b02:	c7 45 20 6f 63 6b 65 	movl   $0x656b636f,0x20(%rbp)
  402b09:	66 c7 45 24 74 00    	movw   $0x74,0x24(%rbp)
  402b0f:	b8 ff ff ff ff       	mov    $0xffffffff,%eax
  402b14:	eb 8b                	jmp    402aa1 <submitr+0x2cf>
  402b16:	48 b8 45 72 72 6f 72 	movabs $0x44203a726f727245,%rax
  402b1d:	3a 20 44 
  402b20:	48 ba 4e 53 20 69 73 	movabs $0x6e7520736920534e,%rdx
  402b27:	20 75 6e 
  402b2a:	48 89 45 00          	mov    %rax,0x0(%rbp)
  402b2e:	48 89 55 08          	mov    %rdx,0x8(%rbp)
  402b32:	48 b8 61 62 6c 65 20 	movabs $0x206f7420656c6261,%rax
  402b39:	74 6f 20 
  402b3c:	48 ba 72 65 73 6f 6c 	movabs $0x2065766c6f736572,%rdx
  402b43:	76 65 20 
  402b46:	48 89 45 10          	mov    %rax,0x10(%rbp)
  402b4a:	48 89 55 18          	mov    %rdx,0x18(%rbp)
  402b4e:	48 b8 73 65 72 76 65 	movabs $0x6120726576726573,%rax
  402b55:	72 20 61 
  402b58:	48 89 45 20          	mov    %rax,0x20(%rbp)
  402b5c:	c7 45 28 64 64 72 65 	movl   $0x65726464,0x28(%rbp)
  402b63:	66 c7 45 2c 73 73    	movw   $0x7373,0x2c(%rbp)
  402b69:	c6 45 2e 00          	movb   $0x0,0x2e(%rbp)
  402b6d:	89 df                	mov    %ebx,%edi
  402b6f:	e8 9c e7 ff ff       	call   401310 <close@plt>
  402b74:	b8 ff ff ff ff       	mov    $0xffffffff,%eax
  402b79:	e9 23 ff ff ff       	jmp    402aa1 <submitr+0x2cf>
  402b7e:	48 b8 45 72 72 6f 72 	movabs $0x55203a726f727245,%rax
  402b85:	3a 20 55 
  402b88:	48 ba 6e 61 62 6c 65 	movabs $0x6f7420656c62616e,%rdx
  402b8f:	20 74 6f 
  402b92:	48 89 45 00          	mov    %rax,0x0(%rbp)
  402b96:	48 89 55 08          	mov    %rdx,0x8(%rbp)
  402b9a:	48 b8 20 63 6f 6e 6e 	movabs $0x7463656e6e6f6320,%rax
  402ba1:	65 63 74 
  402ba4:	48 ba 20 74 6f 20 74 	movabs $0x20656874206f7420,%rdx
  402bab:	68 65 20 
  402bae:	48 89 45 10          	mov    %rax,0x10(%rbp)
  402bb2:	48 89 55 18          	mov    %rdx,0x18(%rbp)
  402bb6:	c7 45 20 73 65 72 76 	movl   $0x76726573,0x20(%rbp)
  402bbd:	66 c7 45 24 65 72    	movw   $0x7265,0x24(%rbp)
  402bc3:	c6 45 26 00          	movb   $0x0,0x26(%rbp)
  402bc7:	89 df                	mov    %ebx,%edi
  402bc9:	e8 42 e7 ff ff       	call   401310 <close@plt>
  402bce:	b8 ff ff ff ff       	mov    $0xffffffff,%eax
  402bd3:	e9 c9 fe ff ff       	jmp    402aa1 <submitr+0x2cf>
  402bd8:	48 b8 45 72 72 6f 72 	movabs $0x52203a726f727245,%rax
  402bdf:	3a 20 52 
  402be2:	48 ba 65 73 75 6c 74 	movabs $0x747320746c757365,%rdx
  402be9:	20 73 74 
  402bec:	48 89 45 00          	mov    %rax,0x0(%rbp)
  402bf0:	48 89 55 08          	mov    %rdx,0x8(%rbp)
  402bf4:	48 b8 72 69 6e 67 20 	movabs $0x6f6f7420676e6972,%rax
  402bfb:	74 6f 6f 
  402bfe:	48 ba 20 6c 61 72 67 	movabs $0x202e656772616c20,%rdx
  402c05:	65 2e 20 
  402c08:	48 89 45 10          	mov    %rax,0x10(%rbp)
  402c0c:	48 89 55 18          	mov    %rdx,0x18(%rbp)
  402c10:	48 b8 49 6e 63 72 65 	movabs $0x6573616572636e49,%rax
  402c17:	61 73 65 
  402c1a:	48 ba 20 53 55 42 4d 	movabs $0x5254494d42555320,%rdx
  402c21:	49 54 52 
  402c24:	48 89 45 20          	mov    %rax,0x20(%rbp)
  402c28:	48 89 55 28          	mov    %rdx,0x28(%rbp)
  402c2c:	48 b8 5f 4d 41 58 42 	movabs $0x46554258414d5f,%rax
  402c33:	55 46 00 
  402c36:	48 89 45 30          	mov    %rax,0x30(%rbp)
  402c3a:	89 df                	mov    %ebx,%edi
  402c3c:	e8 cf e6 ff ff       	call   401310 <close@plt>
  402c41:	b8 ff ff ff ff       	mov    $0xffffffff,%eax
  402c46:	e9 56 fe ff ff       	jmp    402aa1 <submitr+0x2cf>
  402c4b:	48 b8 45 72 72 6f 72 	movabs $0x52203a726f727245,%rax
  402c52:	3a 20 52 
  402c55:	48 ba 65 73 75 6c 74 	movabs $0x747320746c757365,%rdx
  402c5c:	20 73 74 
  402c5f:	48 89 45 00          	mov    %rax,0x0(%rbp)
  402c63:	48 89 55 08          	mov    %rdx,0x8(%rbp)
  402c67:	48 b8 72 69 6e 67 20 	movabs $0x6e6f6320676e6972,%rax
  402c6e:	63 6f 6e 
  402c71:	48 ba 74 61 69 6e 73 	movabs $0x6e6120736e696174,%rdx
  402c78:	20 61 6e 
  402c7b:	48 89 45 10          	mov    %rax,0x10(%rbp)
  402c7f:	48 89 55 18          	mov    %rdx,0x18(%rbp)
  402c83:	48 b8 20 69 6c 6c 65 	movabs $0x6c6167656c6c6920,%rax
  402c8a:	67 61 6c 
  402c8d:	48 ba 20 6f 72 20 75 	movabs $0x72706e7520726f20,%rdx
  402c94:	6e 70 72 
  402c97:	48 89 45 20          	mov    %rax,0x20(%rbp)
  402c9b:	48 89 55 28          	mov    %rdx,0x28(%rbp)
  402c9f:	48 b8 69 6e 74 61 62 	movabs $0x20656c6261746e69,%rax
  402ca6:	6c 65 20 
  402ca9:	48 ba 63 68 61 72 61 	movabs $0x6574636172616863,%rdx
  402cb0:	63 74 65 
  402cb3:	48 89 45 30          	mov    %rax,0x30(%rbp)
  402cb7:	48 89 55 38          	mov    %rdx,0x38(%rbp)
  402cbb:	66 c7 45 40 72 2e    	movw   $0x2e72,0x40(%rbp)
  402cc1:	c6 45 42 00          	movb   $0x0,0x42(%rbp)
  402cc5:	89 df                	mov    %ebx,%edi
  402cc7:	e8 44 e6 ff ff       	call   401310 <close@plt>
  402ccc:	b8 ff ff ff ff       	mov    $0xffffffff,%eax
  402cd1:	e9 cb fd ff ff       	jmp    402aa1 <submitr+0x2cf>
  402cd6:	48 b8 45 72 72 6f 72 	movabs $0x43203a726f727245,%rax
  402cdd:	3a 20 43 
  402ce0:	48 ba 6c 69 65 6e 74 	movabs $0x6e7520746e65696c,%rdx
  402ce7:	20 75 6e 
  402cea:	48 89 45 00          	mov    %rax,0x0(%rbp)
  402cee:	48 89 55 08          	mov    %rdx,0x8(%rbp)
  402cf2:	48 b8 61 62 6c 65 20 	movabs $0x206f7420656c6261,%rax
  402cf9:	74 6f 20 
  402cfc:	48 ba 77 72 69 74 65 	movabs $0x6f74206574697277,%rdx
  402d03:	20 74 6f 
  402d06:	48 89 45 10          	mov    %rax,0x10(%rbp)
  402d0a:	48 89 55 18          	mov    %rdx,0x18(%rbp)
  402d0e:	48 b8 20 74 68 65 20 	movabs $0x7365722065687420,%rax
  402d15:	72 65 73 
  402d18:	48 ba 75 6c 74 20 73 	movabs $0x7672657320746c75,%rdx
  402d1f:	65 72 76 
  402d22:	48 89 45 20          	mov    %rax,0x20(%rbp)
  402d26:	48 89 55 28          	mov    %rdx,0x28(%rbp)
  402d2a:	66 c7 45 30 65 72    	movw   $0x7265,0x30(%rbp)
  402d30:	c6 45 32 00          	movb   $0x0,0x32(%rbp)
  402d34:	89 df                	mov    %ebx,%edi
  402d36:	e8 d5 e5 ff ff       	call   401310 <close@plt>
  402d3b:	b8 ff ff ff ff       	mov    $0xffffffff,%eax
  402d40:	e9 5c fd ff ff       	jmp    402aa1 <submitr+0x2cf>
  402d45:	48 b8 45 72 72 6f 72 	movabs $0x43203a726f727245,%rax
  402d4c:	3a 20 43 
  402d4f:	48 ba 6c 69 65 6e 74 	movabs $0x6e7520746e65696c,%rdx
  402d56:	20 75 6e 
  402d59:	48 89 45 00          	mov    %rax,0x0(%rbp)
  402d5d:	48 89 55 08          	mov    %rdx,0x8(%rbp)
  402d61:	48 b8 61 62 6c 65 20 	movabs $0x206f7420656c6261,%rax
  402d68:	74 6f 20 
  402d6b:	48 ba 72 65 61 64 20 	movabs $0x7269662064616572,%rdx
  402d72:	66 69 72 
  402d75:	48 89 45 10          	mov    %rax,0x10(%rbp)
  402d79:	48 89 55 18          	mov    %rdx,0x18(%rbp)
  402d7d:	48 b8 73 74 20 68 65 	movabs $0x6564616568207473,%rax
  402d84:	61 64 65 
  402d87:	48 ba 72 20 66 72 6f 	movabs $0x72206d6f72662072,%rdx
  402d8e:	6d 20 72 
  402d91:	48 89 45 20          	mov    %rax,0x20(%rbp)
  402d95:	48 89 55 28          	mov    %rdx,0x28(%rbp)
  402d99:	48 b8 65 73 75 6c 74 	movabs $0x657320746c757365,%rax
  402da0:	20 73 65 
  402da3:	48 89 45 30          	mov    %rax,0x30(%rbp)
  402da7:	c7 45 38 72 76 65 72 	movl   $0x72657672,0x38(%rbp)
  402dae:	c6 45 3c 00          	movb   $0x0,0x3c(%rbp)
  402db2:	89 df                	mov    %ebx,%edi
  402db4:	e8 57 e5 ff ff       	call   401310 <close@plt>
  402db9:	b8 ff ff ff ff       	mov    $0xffffffff,%eax
  402dbe:	e9 de fc ff ff       	jmp    402aa1 <submitr+0x2cf>
  402dc3:	48 8d b4 24 50 20 00 	lea    0x2050(%rsp),%rsi
  402dca:	00 
  402dcb:	48 8d 7c 24 40       	lea    0x40(%rsp),%rdi
  402dd0:	ba 00 20 00 00       	mov    $0x2000,%edx
  402dd5:	e8 51 f8 ff ff       	call   40262b <rio_readlineb>
  402dda:	48 85 c0             	test   %rax,%rax
  402ddd:	7e 78                	jle    402e57 <submitr+0x685>
  402ddf:	44 8b 44 24 2c       	mov    0x2c(%rsp),%r8d
  402de4:	41 81 f8 c8 00 00 00 	cmp    $0xc8,%r8d
  402deb:	0f 85 ea 00 00 00    	jne    402edb <submitr+0x709>
  402df1:	48 8d b4 24 50 20 00 	lea    0x2050(%rsp),%rsi
  402df8:	00 
  402df9:	48 89 ef             	mov    %rbp,%rdi
  402dfc:	e8 7f e4 ff ff       	call   401280 <strcpy@plt>
  402e01:	89 df                	mov    %ebx,%edi
  402e03:	e8 08 e5 ff ff       	call   401310 <close@plt>
  402e08:	48 8d 35 0e 18 00 00 	lea    0x180e(%rip),%rsi        # 40461d <trans_char+0xbd>
  402e0f:	48 89 ef             	mov    %rbp,%rdi
  402e12:	e8 09 e5 ff ff       	call   401320 <strcmp@plt>
  402e17:	85 c0                	test   %eax,%eax
  402e19:	0f 84 82 fc ff ff    	je     402aa1 <submitr+0x2cf>
  402e1f:	48 8d 35 fb 17 00 00 	lea    0x17fb(%rip),%rsi        # 404621 <trans_char+0xc1>
  402e26:	48 89 ef             	mov    %rbp,%rdi
  402e29:	e8 f2 e4 ff ff       	call   401320 <strcmp@plt>
  402e2e:	85 c0                	test   %eax,%eax
  402e30:	0f 84 6b fc ff ff    	je     402aa1 <submitr+0x2cf>
  402e36:	48 8d 35 e9 17 00 00 	lea    0x17e9(%rip),%rsi        # 404626 <trans_char+0xc6>
  402e3d:	48 89 ef             	mov    %rbp,%rdi
  402e40:	e8 db e4 ff ff       	call   401320 <strcmp@plt>
  402e45:	85 c0                	test   %eax,%eax
  402e47:	0f 84 54 fc ff ff    	je     402aa1 <submitr+0x2cf>
  402e4d:	b8 ff ff ff ff       	mov    $0xffffffff,%eax
  402e52:	e9 4a fc ff ff       	jmp    402aa1 <submitr+0x2cf>
  402e57:	48 b8 45 72 72 6f 72 	movabs $0x43203a726f727245,%rax
  402e5e:	3a 20 43 
  402e61:	48 ba 6c 69 65 6e 74 	movabs $0x6e7520746e65696c,%rdx
  402e68:	20 75 6e 
  402e6b:	48 89 45 00          	mov    %rax,0x0(%rbp)
  402e6f:	48 89 55 08          	mov    %rdx,0x8(%rbp)
  402e73:	48 b8 61 62 6c 65 20 	movabs $0x206f7420656c6261,%rax
  402e7a:	74 6f 20 
  402e7d:	48 ba 72 65 61 64 20 	movabs $0x6174732064616572,%rdx
  402e84:	73 74 61 
  402e87:	48 89 45 10          	mov    %rax,0x10(%rbp)
  402e8b:	48 89 55 18          	mov    %rdx,0x18(%rbp)
  402e8f:	48 b8 74 75 73 20 6d 	movabs $0x7373656d20737574,%rax
  402e96:	65 73 73 
  402e99:	48 ba 61 67 65 20 66 	movabs $0x6d6f726620656761,%rdx
  402ea0:	72 6f 6d 
  402ea3:	48 89 45 20          	mov    %rax,0x20(%rbp)
  402ea7:	48 89 55 28          	mov    %rdx,0x28(%rbp)
  402eab:	48 b8 20 72 65 73 75 	movabs $0x20746c7573657220,%rax
  402eb2:	6c 74 20 
  402eb5:	48 89 45 30          	mov    %rax,0x30(%rbp)
  402eb9:	c7 45 38 73 65 72 76 	movl   $0x76726573,0x38(%rbp)
  402ec0:	66 c7 45 3c 65 72    	movw   $0x7265,0x3c(%rbp)
  402ec6:	c6 45 3e 00          	movb   $0x0,0x3e(%rbp)
  402eca:	89 df                	mov    %ebx,%edi
  402ecc:	e8 3f e4 ff ff       	call   401310 <close@plt>
  402ed1:	b8 ff ff ff ff       	mov    $0xffffffff,%eax
  402ed6:	e9 c6 fb ff ff       	jmp    402aa1 <submitr+0x2cf>
  402edb:	4c 8d 8c 24 50 80 00 	lea    0x8050(%rsp),%r9
  402ee2:	00 
  402ee3:	48 8d 0d ee 16 00 00 	lea    0x16ee(%rip),%rcx        # 4045d8 <trans_char+0x78>
  402eea:	48 c7 c2 ff ff ff ff 	mov    $0xffffffffffffffff,%rdx
  402ef1:	be 01 00 00 00       	mov    $0x1,%esi
  402ef6:	48 89 ef             	mov    %rbp,%rdi
  402ef9:	b8 00 00 00 00       	mov    $0x0,%eax
  402efe:	e8 4d e5 ff ff       	call   401450 <__sprintf_chk@plt>
  402f03:	89 df                	mov    %ebx,%edi
  402f05:	e8 06 e4 ff ff       	call   401310 <close@plt>
  402f0a:	b8 ff ff ff ff       	mov    $0xffffffff,%eax
  402f0f:	e9 8d fb ff ff       	jmp    402aa1 <submitr+0x2cf>
  402f14:	e8 b7 e3 ff ff       	call   4012d0 <__stack_chk_fail@plt>

0000000000402f19 <init_timeout>:
  402f19:	f3 0f 1e fa          	endbr64 
  402f1d:	85 ff                	test   %edi,%edi
  402f1f:	74 26                	je     402f47 <init_timeout+0x2e>
  402f21:	53                   	push   %rbx
  402f22:	89 fb                	mov    %edi,%ebx
  402f24:	78 1a                	js     402f40 <init_timeout+0x27>
  402f26:	48 8d 35 da f5 ff ff 	lea    -0xa26(%rip),%rsi        # 402507 <sigalrm_handler>
  402f2d:	bf 0e 00 00 00       	mov    $0xe,%edi
  402f32:	e8 f9 e3 ff ff       	call   401330 <signal@plt>
  402f37:	89 df                	mov    %ebx,%edi
  402f39:	e8 c2 e3 ff ff       	call   401300 <alarm@plt>
  402f3e:	5b                   	pop    %rbx
  402f3f:	c3                   	ret    
  402f40:	bb 00 00 00 00       	mov    $0x0,%ebx
  402f45:	eb df                	jmp    402f26 <init_timeout+0xd>
  402f47:	c3                   	ret    

0000000000402f48 <init_driver>:
  402f48:	f3 0f 1e fa          	endbr64 
  402f4c:	41 54                	push   %r12
  402f4e:	55                   	push   %rbp
  402f4f:	53                   	push   %rbx
  402f50:	48 83 ec 20          	sub    $0x20,%rsp
  402f54:	48 89 fd             	mov    %rdi,%rbp
  402f57:	64 48 8b 04 25 28 00 	mov    %fs:0x28,%rax
  402f5e:	00 00 
  402f60:	48 89 44 24 18       	mov    %rax,0x18(%rsp)
  402f65:	31 c0                	xor    %eax,%eax
  402f67:	be 01 00 00 00       	mov    $0x1,%esi
  402f6c:	bf 0d 00 00 00       	mov    $0xd,%edi
  402f71:	e8 ba e3 ff ff       	call   401330 <signal@plt>
  402f76:	be 01 00 00 00       	mov    $0x1,%esi
  402f7b:	bf 1d 00 00 00       	mov    $0x1d,%edi
  402f80:	e8 ab e3 ff ff       	call   401330 <signal@plt>
  402f85:	be 01 00 00 00       	mov    $0x1,%esi
  402f8a:	bf 1d 00 00 00       	mov    $0x1d,%edi
  402f8f:	e8 9c e3 ff ff       	call   401330 <signal@plt>
  402f94:	ba 00 00 00 00       	mov    $0x0,%edx
  402f99:	be 01 00 00 00       	mov    $0x1,%esi
  402f9e:	bf 02 00 00 00       	mov    $0x2,%edi
  402fa3:	e8 b8 e4 ff ff       	call   401460 <socket@plt>
  402fa8:	85 c0                	test   %eax,%eax
  402faa:	0f 88 9c 00 00 00    	js     40304c <init_driver+0x104>
  402fb0:	89 c3                	mov    %eax,%ebx
  402fb2:	48 8d 3d 70 16 00 00 	lea    0x1670(%rip),%rdi        # 404629 <trans_char+0xc9>
  402fb9:	e8 82 e3 ff ff       	call   401340 <gethostbyname@plt>
  402fbe:	48 85 c0             	test   %rax,%rax
  402fc1:	0f 84 d1 00 00 00    	je     403098 <init_driver+0x150>
  402fc7:	49 89 e4             	mov    %rsp,%r12
  402fca:	48 c7 04 24 00 00 00 	movq   $0x0,(%rsp)
  402fd1:	00 
  402fd2:	48 c7 44 24 08 00 00 	movq   $0x0,0x8(%rsp)
  402fd9:	00 00 
  402fdb:	66 c7 04 24 02 00    	movw   $0x2,(%rsp)
  402fe1:	48 63 50 14          	movslq 0x14(%rax),%rdx
  402fe5:	48 8b 40 18          	mov    0x18(%rax),%rax
  402fe9:	48 8b 30             	mov    (%rax),%rsi
  402fec:	48 8d 7c 24 04       	lea    0x4(%rsp),%rdi
  402ff1:	b9 0c 00 00 00       	mov    $0xc,%ecx
  402ff6:	e8 55 e3 ff ff       	call   401350 <__memmove_chk@plt>
  402ffb:	66 c7 44 24 02 3c 9a 	movw   $0x9a3c,0x2(%rsp)
  403002:	ba 10 00 00 00       	mov    $0x10,%edx
  403007:	4c 89 e6             	mov    %r12,%rsi
  40300a:	89 df                	mov    %ebx,%edi
  40300c:	e8 0f e4 ff ff       	call   401420 <connect@plt>
  403011:	85 c0                	test   %eax,%eax
  403013:	0f 88 e7 00 00 00    	js     403100 <init_driver+0x1b8>
  403019:	89 df                	mov    %ebx,%edi
  40301b:	e8 f0 e2 ff ff       	call   401310 <close@plt>
  403020:	66 c7 45 00 4f 4b    	movw   $0x4b4f,0x0(%rbp)
  403026:	c6 45 02 00          	movb   $0x0,0x2(%rbp)
  40302a:	b8 00 00 00 00       	mov    $0x0,%eax
  40302f:	48 8b 54 24 18       	mov    0x18(%rsp),%rdx
  403034:	64 48 2b 14 25 28 00 	sub    %fs:0x28,%rdx
  40303b:	00 00 
  40303d:	0f 85 3a 01 00 00    	jne    40317d <init_driver+0x235>
  403043:	48 83 c4 20          	add    $0x20,%rsp
  403047:	5b                   	pop    %rbx
  403048:	5d                   	pop    %rbp
  403049:	41 5c                	pop    %r12
  40304b:	c3                   	ret    
  40304c:	48 b8 45 72 72 6f 72 	movabs $0x43203a726f727245,%rax
  403053:	3a 20 43 
  403056:	48 ba 6c 69 65 6e 74 	movabs $0x6e7520746e65696c,%rdx
  40305d:	20 75 6e 
  403060:	48 89 45 00          	mov    %rax,0x0(%rbp)
  403064:	48 89 55 08          	mov    %rdx,0x8(%rbp)
  403068:	48 b8 61 62 6c 65 20 	movabs $0x206f7420656c6261,%rax
  40306f:	74 6f 20 
  403072:	48 ba 63 72 65 61 74 	movabs $0x7320657461657263,%rdx
  403079:	65 20 73 
  40307c:	48 89 45 10          	mov    %rax,0x10(%rbp)
  403080:	48 89 55 18          	mov    %rdx,0x18(%rbp)
  403084:	c7 45 20 6f 63 6b 65 	movl   $0x656b636f,0x20(%rbp)
  40308b:	66 c7 45 24 74 00    	movw   $0x74,0x24(%rbp)
  403091:	b8 ff ff ff ff       	mov    $0xffffffff,%eax
  403096:	eb 97                	jmp    40302f <init_driver+0xe7>
  403098:	48 b8 45 72 72 6f 72 	movabs $0x44203a726f727245,%rax
  40309f:	3a 20 44 
  4030a2:	48 ba 4e 53 20 69 73 	movabs $0x6e7520736920534e,%rdx
  4030a9:	20 75 6e 
  4030ac:	48 89 45 00          	mov    %rax,0x0(%rbp)
  4030b0:	48 89 55 08          	mov    %rdx,0x8(%rbp)
  4030b4:	48 b8 61 62 6c 65 20 	movabs $0x206f7420656c6261,%rax
  4030bb:	74 6f 20 
  4030be:	48 ba 72 65 73 6f 6c 	movabs $0x2065766c6f736572,%rdx
  4030c5:	76 65 20 
  4030c8:	48 89 45 10          	mov    %rax,0x10(%rbp)
  4030cc:	48 89 55 18          	mov    %rdx,0x18(%rbp)
  4030d0:	48 b8 73 65 72 76 65 	movabs $0x6120726576726573,%rax
  4030d7:	72 20 61 
  4030da:	48 89 45 20          	mov    %rax,0x20(%rbp)
  4030de:	c7 45 28 64 64 72 65 	movl   $0x65726464,0x28(%rbp)
  4030e5:	66 c7 45 2c 73 73    	movw   $0x7373,0x2c(%rbp)
  4030eb:	c6 45 2e 00          	movb   $0x0,0x2e(%rbp)
  4030ef:	89 df                	mov    %ebx,%edi
  4030f1:	e8 1a e2 ff ff       	call   401310 <close@plt>
  4030f6:	b8 ff ff ff ff       	mov    $0xffffffff,%eax
  4030fb:	e9 2f ff ff ff       	jmp    40302f <init_driver+0xe7>
  403100:	48 b8 63 68 61 6e 67 	movabs $0x656d65676e616863,%rax
  403107:	65 6d 65 
  40310a:	48 ba 2e 79 6f 75 72 	movabs $0x68637372756f792e,%rdx
  403111:	73 63 68 
  403114:	48 89 45 00          	mov    %rax,0x0(%rbp)
  403118:	48 89 55 08          	mov    %rdx,0x8(%rbp)
  40311c:	48 b8 6f 6f 6c 2e 65 	movabs $0x7564652e6c6f6f,%rax
  403123:	64 75 00 
  403126:	48 89 45 10          	mov    %rax,0x10(%rbp)
  40312a:	48 b8 45 72 72 6f 72 	movabs $0x55203a726f727245,%rax
  403131:	3a 20 55 
  403134:	48 ba 6e 61 62 6c 65 	movabs $0x6f7420656c62616e,%rdx
  40313b:	20 74 6f 
  40313e:	48 89 45 00          	mov    %rax,0x0(%rbp)
  403142:	48 89 55 08          	mov    %rdx,0x8(%rbp)
  403146:	48 b8 20 63 6f 6e 6e 	movabs $0x7463656e6e6f6320,%rax
  40314d:	65 63 74 
  403150:	48 ba 20 74 6f 20 73 	movabs $0x76726573206f7420,%rdx
  403157:	65 72 76 
  40315a:	48 89 45 10          	mov    %rax,0x10(%rbp)
  40315e:	48 89 55 18          	mov    %rdx,0x18(%rbp)
  403162:	66 c7 45 20 65 72    	movw   $0x7265,0x20(%rbp)
  403168:	c6 45 22 00          	movb   $0x0,0x22(%rbp)
  40316c:	89 df                	mov    %ebx,%edi
  40316e:	e8 9d e1 ff ff       	call   401310 <close@plt>
  403173:	b8 ff ff ff ff       	mov    $0xffffffff,%eax
  403178:	e9 b2 fe ff ff       	jmp    40302f <init_driver+0xe7>
  40317d:	e8 4e e1 ff ff       	call   4012d0 <__stack_chk_fail@plt>

0000000000403182 <driver_post>:
  403182:	f3 0f 1e fa          	endbr64 
  403186:	53                   	push   %rbx
  403187:	4c 89 cb             	mov    %r9,%rbx
  40318a:	45 85 c0             	test   %r8d,%r8d
  40318d:	75 18                	jne    4031a7 <driver_post+0x25>
  40318f:	48 85 ff             	test   %rdi,%rdi
  403192:	74 05                	je     403199 <driver_post+0x17>
  403194:	80 3f 00             	cmpb   $0x0,(%rdi)
  403197:	75 37                	jne    4031d0 <driver_post+0x4e>
  403199:	66 c7 03 4f 4b       	movw   $0x4b4f,(%rbx)
  40319e:	c6 43 02 00          	movb   $0x0,0x2(%rbx)
  4031a2:	44 89 c0             	mov    %r8d,%eax
  4031a5:	5b                   	pop    %rbx
  4031a6:	c3                   	ret    
  4031a7:	48 89 ca             	mov    %rcx,%rdx
  4031aa:	48 8d 35 90 14 00 00 	lea    0x1490(%rip),%rsi        # 404641 <trans_char+0xe1>
  4031b1:	bf 01 00 00 00       	mov    $0x1,%edi
  4031b6:	b8 00 00 00 00       	mov    $0x0,%eax
  4031bb:	e8 10 e2 ff ff       	call   4013d0 <__printf_chk@plt>
  4031c0:	66 c7 03 4f 4b       	movw   $0x4b4f,(%rbx)
  4031c5:	c6 43 02 00          	movb   $0x0,0x2(%rbx)
  4031c9:	b8 00 00 00 00       	mov    $0x0,%eax
  4031ce:	eb d5                	jmp    4031a5 <driver_post+0x23>
  4031d0:	48 83 ec 08          	sub    $0x8,%rsp
  4031d4:	41 51                	push   %r9
  4031d6:	49 89 c9             	mov    %rcx,%r9
  4031d9:	49 89 d0             	mov    %rdx,%r8
  4031dc:	48 89 f9             	mov    %rdi,%rcx
  4031df:	48 89 f2             	mov    %rsi,%rdx
  4031e2:	be 9a 3c 00 00       	mov    $0x3c9a,%esi
  4031e7:	48 8d 3d 3b 14 00 00 	lea    0x143b(%rip),%rdi        # 404629 <trans_char+0xc9>
  4031ee:	e8 df f5 ff ff       	call   4027d2 <submitr>
  4031f3:	48 83 c4 10          	add    $0x10,%rsp
  4031f7:	eb ac                	jmp    4031a5 <driver_post+0x23>

00000000004031f9 <check>:
  4031f9:	f3 0f 1e fa          	endbr64 
  4031fd:	89 f8                	mov    %edi,%eax
  4031ff:	c1 e8 1c             	shr    $0x1c,%eax
  403202:	74 1d                	je     403221 <check+0x28>
  403204:	b9 00 00 00 00       	mov    $0x0,%ecx
  403209:	83 f9 1f             	cmp    $0x1f,%ecx
  40320c:	7f 0d                	jg     40321b <check+0x22>
  40320e:	89 f8                	mov    %edi,%eax
  403210:	d3 e8                	shr    %cl,%eax
  403212:	3c 0a                	cmp    $0xa,%al
  403214:	74 11                	je     403227 <check+0x2e>
  403216:	83 c1 08             	add    $0x8,%ecx
  403219:	eb ee                	jmp    403209 <check+0x10>
  40321b:	b8 01 00 00 00       	mov    $0x1,%eax
  403220:	c3                   	ret    
  403221:	b8 00 00 00 00       	mov    $0x0,%eax
  403226:	c3                   	ret    
  403227:	b8 00 00 00 00       	mov    $0x0,%eax
  40322c:	c3                   	ret    

000000000040322d <gencookie>:
  40322d:	f3 0f 1e fa          	endbr64 
  403231:	53                   	push   %rbx
  403232:	83 c7 01             	add    $0x1,%edi
  403235:	e8 26 e0 ff ff       	call   401260 <srandom@plt>
  40323a:	e8 51 e1 ff ff       	call   401390 <random@plt>
  40323f:	89 c3                	mov    %eax,%ebx
  403241:	89 c7                	mov    %eax,%edi
  403243:	e8 b1 ff ff ff       	call   4031f9 <check>
  403248:	85 c0                	test   %eax,%eax
  40324a:	74 ee                	je     40323a <gencookie+0xd>
  40324c:	89 d8                	mov    %ebx,%eax
  40324e:	5b                   	pop    %rbx
  40324f:	c3                   	ret    

Disassembly of section .fini:

0000000000403250 <_fini>:
  403250:	f3 0f 1e fa          	endbr64 
  403254:	48 83 ec 08          	sub    $0x8,%rsp
  403258:	48 83 c4 08          	add    $0x8,%rsp
  40325c:	c3                   	ret    
